(dp0
S'viz'
p1
(lp2
I00
aI00
aI00
aI00
aI00
aI00
aI00
aI00
aI00
asS'frame'
p3
(lp4
S'torso_lift_link'
p5
ag5
ag5
ag5
ag5
ag5
ag5
ag5
ag5
asS'pose'
p6
(lp7
(lp8
F0.0
aF0.0
aF0.0
aF0.0
aF0.0
aF0.0
aF0.0
aa(lp9
F0.0
aF0.0
aF0.0
aF0.0
aF0.0
aF0.0
aF0.0
aa(lp10
F0.0
aF0.0
aF0.0
aF0.0
aF0.0
aF0.0
aF0.0
aa(lp11
F0.0
aF0.0
aF0.0
aF0.0
aF0.0
aF0.0
aF0.0
aa(lp12
F0.0
aF0.0
aF0.0
aF0.0
aF0.0
aF0.0
aF0.0
aa(lp13
F0.0
aF0.0
aF0.0
aF0.0
aF0.0
aF0.0
aF0.0
aa(lp14
F0.0
aF0.0
aF0.0
aF0.0
aF0.0
aF0.0
aF0.0
aa(lp15
F0.0
aF0.0
aF0.0
aF0.0
aF0.0
aF0.0
aF0.0
aa(lp16
F0.0
aF0.0
aF0.0
aF0.0
aF0.0
aF0.0
aF0.0
aasS'id'
p17
(lp18
I0
aI1
aI2
aI3
aI4
aI5
aI6
aI7
aI8
asS'conf'
p19
(lp20
I1
aI1
aI1
aI1
aI1
aI1
aI1
aI1
aI1
as.(dp0
S'viz'
p1
(lp2
I00
aI00
aI00
aI00
aI00
aI00
aI00
aI00
aI00
asS'frame'
p3
(lp4
S'torso_lift_link'
p5
ag5
ag5
ag5
ag5
ag5
ag5
ag5
ag5
asS'pose'
p6
(lp7
(lp8
F0.0
aF0.0
aF0.0
aF0.0
aF0.0
aF0.0
aF0.0
aa(lp9
F0.0
aF0.0
aF0.0
aF0.0
aF0.0
aF0.0
aF0.0
aa(lp10
F0.0
aF0.0
aF0.0
aF0.0
aF0.0
aF0.0
aF0.0
aa(lp11
F0.0
aF0.0
aF0.0
aF0.0
aF0.0
aF0.0
aF0.0
aa(lp12
F0.0
aF0.0
aF0.0
aF0.0
aF0.0
aF0.0
aF0.0
aa(lp13
F0.0
aF0.0
aF0.0
aF0.0
aF0.0
aF0.0
aF0.0
aa(lp14
F0.0
aF0.0
aF0.0
aF0.0
aF0.0
aF0.0
aF0.0
aa(lp15
F0.0
aF0.0
aF0.0
aF0.0
aF0.0
aF0.0
aF0.0
aa(lp16
F0.0
aF0.0
aF0.0
aF0.0
aF0.0
aF0.0
aF0.0
aasS'id'
p17
(lp18
I0
aI1
aI2
aI3
aI4
aI5
aI6
aI7
aI8
asS'conf'
p19
(lp20
I1
aI1
aI1
aI1
aI1
aI1
aI1
aI1
aI1
as.(dp0
S'viz'
p1
(lp2
I00
aI00
aI00
aI00
aI00
aI00
aI00
aI00
aI00
asS'frame'
p3
(lp4
S'torso_lift_link'
p5
ag5
ag5
ag5
ag5
ag5
ag5
ag5
ag5
asS'pose'
p6
(lp7
(lp8
F0.0
aF0.0
aF0.0
aF0.0
aF0.0
aF0.0
aF0.0
aa(lp9
F0.0
aF0.0
aF0.0
aF0.0
aF0.0
aF0.0
aF0.0
aa(lp10
F0.0
aF0.0
aF0.0
aF0.0
aF0.0
aF0.0
aF0.0
aa(lp11
F0.0
aF0.0
aF0.0
aF0.0
aF0.0
aF0.0
aF0.0
aa(lp12
F0.0
aF0.0
aF0.0
aF0.0
aF0.0
aF0.0
aF0.0
aa(lp13
F0.0
aF0.0
aF0.0
aF0.0
aF0.0
aF0.0
aF0.0
aa(lp14
F0.0
aF0.0
aF0.0
aF0.0
aF0.0
aF0.0
aF0.0
aa(lp15
F0.0
aF0.0
aF0.0
aF0.0
aF0.0
aF0.0
aF0.0
aa(lp16
F0.0
aF0.0
aF0.0
aF0.0
aF0.0
aF0.0
aF0.0
aasS'id'
p17
(lp18
I0
aI1
aI2
aI3
aI4
aI5
aI6
aI7
aI8
asS'conf'
p19
(lp20
I1
aI1
aI1
aI1
aI1
aI1
aI1
aI1
aI1
as.(dp0
S'viz'
p1
(lp2
I00
aI00
aI00
aI00
aI00
aI00
aI00
aI00
aI00
asS'frame'
p3
(lp4
S'torso_lift_link'
p5
ag5
ag5
ag5
ag5
ag5
ag5
ag5
ag5
asS'pose'
p6
(lp7
(lp8
F0.0
aF0.0
aF0.0
aF0.0
aF0.0
aF0.0
aF0.0
aa(lp9
F0.0
aF0.0
aF0.0
aF0.0
aF0.0
aF0.0
aF0.0
aa(lp10
F0.0
aF0.0
aF0.0
aF0.0
aF0.0
aF0.0
aF0.0
aa(lp11
F0.0
aF0.0
aF0.0
aF0.0
aF0.0
aF0.0
aF0.0
aa(lp12
F0.0
aF0.0
aF0.0
aF0.0
aF0.0
aF0.0
aF0.0
aa(lp13
F0.0
aF0.0
aF0.0
aF0.0
aF0.0
aF0.0
aF0.0
aa(lp14
F0.0
aF0.0
aF0.0
aF0.0
aF0.0
aF0.0
aF0.0
aa(lp15
F0.0
aF0.0
aF0.0
aF0.0
aF0.0
aF0.0
aF0.0
aa(lp16
F0.0
aF0.0
aF0.0
aF0.0
aF0.0
aF0.0
aF0.0
aasS'id'
p17
(lp18
I0
aI1
aI2
aI3
aI4
aI5
aI6
aI7
aI8
asS'conf'
p19
(lp20
I1
aI1
aI1
aI1
aI1
aI1
aI1
aI1
aI1
as.(dp0
S'viz'
p1
(lp2
I00
aI00
aI00
aI00
aI00
aI00
aI00
aI00
aI00
asS'frame'
p3
(lp4
S'torso_lift_link'
p5
ag5
ag5
ag5
ag5
ag5
ag5
ag5
ag5
asS'pose'
p6
(lp7
(lp8
F0.0
aF0.0
aF0.0
aF0.0
aF0.0
aF0.0
aF0.0
aa(lp9
F0.0
aF0.0
aF0.0
aF0.0
aF0.0
aF0.0
aF0.0
aa(lp10
F0.0
aF0.0
aF0.0
aF0.0
aF0.0
aF0.0
aF0.0
aa(lp11
F0.0
aF0.0
aF0.0
aF0.0
aF0.0
aF0.0
aF0.0
aa(lp12
F0.0
aF0.0
aF0.0
aF0.0
aF0.0
aF0.0
aF0.0
aa(lp13
F0.0
aF0.0
aF0.0
aF0.0
aF0.0
aF0.0
aF0.0
aa(lp14
F0.0
aF0.0
aF0.0
aF0.0
aF0.0
aF0.0
aF0.0
aa(lp15
F0.0
aF0.0
aF0.0
aF0.0
aF0.0
aF0.0
aF0.0
aa(lp16
F0.0
aF0.0
aF0.0
aF0.0
aF0.0
aF0.0
aF0.0
aasS'id'
p17
(lp18
I0
aI1
aI2
aI3
aI4
aI5
aI6
aI7
aI8
asS'conf'
p19
(lp20
I1
aI1
aI1
aI1
aI1
aI1
aI1
aI1
aI1
as.(dp0
S'viz'
p1
(lp2
I00
aI00
aI00
aI00
aI00
aI00
aI00
aI00
aI00
asS'frame'
p3
(lp4
S'torso_lift_link'
p5
ag5
ag5
ag5
ag5
ag5
ag5
ag5
ag5
asS'pose'
p6
(lp7
(lp8
F0.0
aF0.0
aF0.0
aF0.0
aF0.0
aF0.0
aF0.0
aa(lp9
F0.0
aF0.0
aF0.0
aF0.0
aF0.0
aF0.0
aF0.0
aa(lp10
F0.0
aF0.0
aF0.0
aF0.0
aF0.0
aF0.0
aF0.0
aa(lp11
F0.0
aF0.0
aF0.0
aF0.0
aF0.0
aF0.0
aF0.0
aa(lp12
F0.0
aF0.0
aF0.0
aF0.0
aF0.0
aF0.0
aF0.0
aa(lp13
F0.0
aF0.0
aF0.0
aF0.0
aF0.0
aF0.0
aF0.0
aa(lp14
F0.0
aF0.0
aF0.0
aF0.0
aF0.0
aF0.0
aF0.0
aa(lp15
F0.0
aF0.0
aF0.0
aF0.0
aF0.0
aF0.0
aF0.0
aa(lp16
F0.0
aF0.0
aF0.0
aF0.0
aF0.0
aF0.0
aF0.0
aasS'id'
p17
(lp18
I0
aI1
aI2
aI3
aI4
aI5
aI6
aI7
aI8
asS'conf'
p19
(lp20
I1
aI1
aI1
aI1
aI1
aI1
aI1
aI1
aI1
as.(dp0
S'viz'
p1
(lp2
I00
aI00
aI00
aI00
aI00
aI00
aI00
aI00
aI00
asS'frame'
p3
(lp4
S'torso_lift_link'
p5
ag5
ag5
ag5
ag5
ag5
ag5
ag5
ag5
asS'pose'
p6
(lp7
(lp8
F0.0
aF0.0
aF0.0
aF0.0
aF0.0
aF0.0
aF0.0
aa(lp9
F0.0
aF0.0
aF0.0
aF0.0
aF0.0
aF0.0
aF0.0
aa(lp10
F0.0
aF0.0
aF0.0
aF0.0
aF0.0
aF0.0
aF0.0
aa(lp11
F0.0
aF0.0
aF0.0
aF0.0
aF0.0
aF0.0
aF0.0
aa(lp12
F0.0
aF0.0
aF0.0
aF0.0
aF0.0
aF0.0
aF0.0
aa(lp13
F0.0
aF0.0
aF0.0
aF0.0
aF0.0
aF0.0
aF0.0
aa(lp14
F0.0
aF0.0
aF0.0
aF0.0
aF0.0
aF0.0
aF0.0
aa(lp15
F0.0
aF0.0
aF0.0
aF0.0
aF0.0
aF0.0
aF0.0
aa(lp16
F0.0
aF0.0
aF0.0
aF0.0
aF0.0
aF0.0
aF0.0
aasS'id'
p17
(lp18
I0
aI1
aI2
aI3
aI4
aI5
aI6
aI7
aI8
asS'conf'
p19
(lp20
I1
aI1
aI1
aI1
aI1
aI1
aI1
aI1
aI1
as.(dp0
S'viz'
p1
(lp2
I00
aI00
aI00
aI00
aI00
aI00
aI00
aI00
aI00
asS'frame'
p3
(lp4
S'torso_lift_link'
p5
ag5
ag5
ag5
ag5
ag5
ag5
ag5
ag5
asS'pose'
p6
(lp7
(lp8
F0.0
aF0.0
aF0.0
aF0.0
aF0.0
aF0.0
aF0.0
aa(lp9
F0.0
aF0.0
aF0.0
aF0.0
aF0.0
aF0.0
aF0.0
aa(lp10
F0.0
aF0.0
aF0.0
aF0.0
aF0.0
aF0.0
aF0.0
aa(lp11
F0.0
aF0.0
aF0.0
aF0.0
aF0.0
aF0.0
aF0.0
aa(lp12
F0.0
aF0.0
aF0.0
aF0.0
aF0.0
aF0.0
aF0.0
aa(lp13
F0.0
aF0.0
aF0.0
aF0.0
aF0.0
aF0.0
aF0.0
aa(lp14
F0.0
aF0.0
aF0.0
aF0.0
aF0.0
aF0.0
aF0.0
aa(lp15
F0.0
aF0.0
aF0.0
aF0.0
aF0.0
aF0.0
aF0.0
aa(lp16
F0.0
aF0.0
aF0.0
aF0.0
aF0.0
aF0.0
aF0.0
aasS'id'
p17
(lp18
I0
aI1
aI2
aI3
aI4
aI5
aI6
aI7
aI8
asS'conf'
p19
(lp20
I1
aI1
aI1
aI1
aI1
aI1
aI1
aI1
aI1
as.(dp0
S'viz'
p1
(lp2
I00
aI00
aI00
aI00
aI00
aI00
aI00
aI00
aI00
asS'frame'
p3
(lp4
S'torso_lift_link'
p5
ag5
ag5
ag5
ag5
ag5
ag5
ag5
ag5
asS'pose'
p6
(lp7
(lp8
F0.0
aF0.0
aF0.0
aF0.0
aF0.0
aF0.0
aF0.0
aa(lp9
F0.0
aF0.0
aF0.0
aF0.0
aF0.0
aF0.0
aF0.0
aa(lp10
F0.0
aF0.0
aF0.0
aF0.0
aF0.0
aF0.0
aF0.0
aa(lp11
F0.0
aF0.0
aF0.0
aF0.0
aF0.0
aF0.0
aF0.0
aa(lp12
F0.0
aF0.0
aF0.0
aF0.0
aF0.0
aF0.0
aF0.0
aa(lp13
F0.0
aF0.0
aF0.0
aF0.0
aF0.0
aF0.0
aF0.0
aa(lp14
F0.0
aF0.0
aF0.0
aF0.0
aF0.0
aF0.0
aF0.0
aa(lp15
F0.0
aF0.0
aF0.0
aF0.0
aF0.0
aF0.0
aF0.0
aa(lp16
F0.0
aF0.0
aF0.0
aF0.0
aF0.0
aF0.0
aF0.0
aasS'id'
p17
(lp18
I0
aI1
aI2
aI3
aI4
aI5
aI6
aI7
aI8
asS'conf'
p19
(lp20
I1
aI1
aI1
aI1
aI1
aI1
aI1
aI1
aI1
as.(dp0
S'viz'
p1
(lp2
I00
aI00
aI00
aI00
aI00
aI00
aI00
aI00
aI00
asS'frame'
p3
(lp4
S'torso_lift_link'
p5
ag5
ag5
ag5
ag5
ag5
ag5
ag5
ag5
asS'pose'
p6
(lp7
(lp8
F0.0
aF0.0
aF0.0
aF0.0
aF0.0
aF0.0
aF0.0
aa(lp9
F0.0
aF0.0
aF0.0
aF0.0
aF0.0
aF0.0
aF0.0
aa(lp10
F0.0
aF0.0
aF0.0
aF0.0
aF0.0
aF0.0
aF0.0
aa(lp11
F0.0
aF0.0
aF0.0
aF0.0
aF0.0
aF0.0
aF0.0
aa(lp12
F0.0
aF0.0
aF0.0
aF0.0
aF0.0
aF0.0
aF0.0
aa(lp13
F0.0
aF0.0
aF0.0
aF0.0
aF0.0
aF0.0
aF0.0
aa(lp14
F0.0
aF0.0
aF0.0
aF0.0
aF0.0
aF0.0
aF0.0
aa(lp15
F0.0
aF0.0
aF0.0
aF0.0
aF0.0
aF0.0
aF0.0
aa(lp16
F0.0
aF0.0
aF0.0
aF0.0
aF0.0
aF0.0
aF0.0
aasS'id'
p17
(lp18
I0
aI1
aI2
aI3
aI4
aI5
aI6
aI7
aI8
asS'conf'
p19
(lp20
I1
aI1
aI1
aI1
aI1
aI1
aI1
aI1
aI1
as.(dp0
S'viz'
p1
(lp2
I00
aI00
aI00
aI00
aI00
aI00
aI00
aI00
aI00
asS'frame'
p3
(lp4
S'torso_lift_link'
p5
ag5
ag5
ag5
ag5
ag5
ag5
ag5
ag5
asS'pose'
p6
(lp7
(lp8
F0.0
aF0.0
aF0.0
aF0.0
aF0.0
aF0.0
aF0.0
aa(lp9
F0.0
aF0.0
aF0.0
aF0.0
aF0.0
aF0.0
aF0.0
aa(lp10
F0.0
aF0.0
aF0.0
aF0.0
aF0.0
aF0.0
aF0.0
aa(lp11
F0.0
aF0.0
aF0.0
aF0.0
aF0.0
aF0.0
aF0.0
aa(lp12
F0.0
aF0.0
aF0.0
aF0.0
aF0.0
aF0.0
aF0.0
aa(lp13
F0.0
aF0.0
aF0.0
aF0.0
aF0.0
aF0.0
aF0.0
aa(lp14
F0.0
aF0.0
aF0.0
aF0.0
aF0.0
aF0.0
aF0.0
aa(lp15
F0.0
aF0.0
aF0.0
aF0.0
aF0.0
aF0.0
aF0.0
aa(lp16
F0.0
aF0.0
aF0.0
aF0.0
aF0.0
aF0.0
aF0.0
aasS'id'
p17
(lp18
I0
aI1
aI2
aI3
aI4
aI5
aI6
aI7
aI8
asS'conf'
p19
(lp20
I1
aI1
aI1
aI1
aI1
aI1
aI1
aI1
aI1
as.(dp0
S'viz'
p1
(lp2
I00
aI00
aI00
aI00
aI00
aI00
aI00
aI00
aI00
asS'frame'
p3
(lp4
S'torso_lift_link'
p5
ag5
ag5
ag5
ag5
ag5
ag5
ag5
ag5
asS'pose'
p6
(lp7
(lp8
F0.0
aF0.0
aF0.0
aF0.0
aF0.0
aF0.0
aF0.0
aa(lp9
F0.0
aF0.0
aF0.0
aF0.0
aF0.0
aF0.0
aF0.0
aa(lp10
F0.0
aF0.0
aF0.0
aF0.0
aF0.0
aF0.0
aF0.0
aa(lp11
F0.0
aF0.0
aF0.0
aF0.0
aF0.0
aF0.0
aF0.0
aa(lp12
F0.0
aF0.0
aF0.0
aF0.0
aF0.0
aF0.0
aF0.0
aa(lp13
F0.0
aF0.0
aF0.0
aF0.0
aF0.0
aF0.0
aF0.0
aa(lp14
F0.0
aF0.0
aF0.0
aF0.0
aF0.0
aF0.0
aF0.0
aa(lp15
F0.0
aF0.0
aF0.0
aF0.0
aF0.0
aF0.0
aF0.0
aa(lp16
F0.0
aF0.0
aF0.0
aF0.0
aF0.0
aF0.0
aF0.0
aasS'id'
p17
(lp18
I0
aI1
aI2
aI3
aI4
aI5
aI6
aI7
aI8
asS'conf'
p19
(lp20
I1
aI1
aI1
aI1
aI1
aI1
aI1
aI1
aI1
as.(dp0
S'viz'
p1
(lp2
I00
aI00
aI00
aI00
aI00
aI00
aI00
aI00
aI00
asS'frame'
p3
(lp4
S'torso_lift_link'
p5
ag5
ag5
ag5
ag5
ag5
ag5
ag5
ag5
asS'pose'
p6
(lp7
(lp8
F0.0
aF0.0
aF0.0
aF0.0
aF0.0
aF0.0
aF0.0
aa(lp9
F0.0
aF0.0
aF0.0
aF0.0
aF0.0
aF0.0
aF0.0
aa(lp10
F0.0
aF0.0
aF0.0
aF0.0
aF0.0
aF0.0
aF0.0
aa(lp11
F0.0
aF0.0
aF0.0
aF0.0
aF0.0
aF0.0
aF0.0
aa(lp12
F0.0
aF0.0
aF0.0
aF0.0
aF0.0
aF0.0
aF0.0
aa(lp13
F0.0
aF0.0
aF0.0
aF0.0
aF0.0
aF0.0
aF0.0
aa(lp14
F0.0
aF0.0
aF0.0
aF0.0
aF0.0
aF0.0
aF0.0
aa(lp15
F0.0
aF0.0
aF0.0
aF0.0
aF0.0
aF0.0
aF0.0
aa(lp16
F0.0
aF0.0
aF0.0
aF0.0
aF0.0
aF0.0
aF0.0
aasS'id'
p17
(lp18
I0
aI1
aI2
aI3
aI4
aI5
aI6
aI7
aI8
asS'conf'
p19
(lp20
I1
aI1
aI1
aI1
aI1
aI1
aI1
aI1
aI1
as.(dp0
S'viz'
p1
(lp2
I00
aI00
aI00
aI00
aI00
aI00
aI00
aI00
aI00
asS'frame'
p3
(lp4
S'torso_lift_link'
p5
ag5
ag5
ag5
ag5
ag5
ag5
ag5
ag5
asS'pose'
p6
(lp7
(lp8
F0.0
aF0.0
aF0.0
aF0.0
aF0.0
aF0.0
aF0.0
aa(lp9
F0.0
aF0.0
aF0.0
aF0.0
aF0.0
aF0.0
aF0.0
aa(lp10
F0.0
aF0.0
aF0.0
aF0.0
aF0.0
aF0.0
aF0.0
aa(lp11
F0.0
aF0.0
aF0.0
aF0.0
aF0.0
aF0.0
aF0.0
aa(lp12
F0.0
aF0.0
aF0.0
aF0.0
aF0.0
aF0.0
aF0.0
aa(lp13
F0.0
aF0.0
aF0.0
aF0.0
aF0.0
aF0.0
aF0.0
aa(lp14
F0.0
aF0.0
aF0.0
aF0.0
aF0.0
aF0.0
aF0.0
aa(lp15
F0.0
aF0.0
aF0.0
aF0.0
aF0.0
aF0.0
aF0.0
aa(lp16
F0.0
aF0.0
aF0.0
aF0.0
aF0.0
aF0.0
aF0.0
aasS'id'
p17
(lp18
I0
aI1
aI2
aI3
aI4
aI5
aI6
aI7
aI8
asS'conf'
p19
(lp20
I1
aI1
aI1
aI1
aI1
aI1
aI1
aI1
aI1
as.(dp0
S'viz'
p1
(lp2
I00
aI00
aI00
aI00
aI00
aI00
aI00
aI00
aI00
asS'frame'
p3
(lp4
S'torso_lift_link'
p5
ag5
ag5
ag5
ag5
ag5
ag5
ag5
ag5
asS'pose'
p6
(lp7
(lp8
F0.0
aF0.0
aF0.0
aF0.0
aF0.0
aF0.0
aF0.0
aa(lp9
F0.0
aF0.0
aF0.0
aF0.0
aF0.0
aF0.0
aF0.0
aa(lp10
F0.0
aF0.0
aF0.0
aF0.0
aF0.0
aF0.0
aF0.0
aa(lp11
F0.0
aF0.0
aF0.0
aF0.0
aF0.0
aF0.0
aF0.0
aa(lp12
F0.0
aF0.0
aF0.0
aF0.0
aF0.0
aF0.0
aF0.0
aa(lp13
F0.0
aF0.0
aF0.0
aF0.0
aF0.0
aF0.0
aF0.0
aa(lp14
F0.0
aF0.0
aF0.0
aF0.0
aF0.0
aF0.0
aF0.0
aa(lp15
F0.0
aF0.0
aF0.0
aF0.0
aF0.0
aF0.0
aF0.0
aa(lp16
F0.0
aF0.0
aF0.0
aF0.0
aF0.0
aF0.0
aF0.0
aasS'id'
p17
(lp18
I0
aI1
aI2
aI3
aI4
aI5
aI6
aI7
aI8
asS'conf'
p19
(lp20
I1
aI1
aI1
aI1
aI1
aI1
aI1
aI1
aI1
as.(dp0
S'viz'
p1
(lp2
I00
aI00
aI00
aI00
aI00
aI00
aI00
aI00
aI00
asS'frame'
p3
(lp4
S'torso_lift_link'
p5
ag5
ag5
ag5
ag5
ag5
ag5
ag5
ag5
asS'pose'
p6
(lp7
(lp8
F0.0
aF0.0
aF0.0
aF0.0
aF0.0
aF0.0
aF0.0
aa(lp9
F0.0
aF0.0
aF0.0
aF0.0
aF0.0
aF0.0
aF0.0
aa(lp10
F0.0
aF0.0
aF0.0
aF0.0
aF0.0
aF0.0
aF0.0
aa(lp11
F0.0
aF0.0
aF0.0
aF0.0
aF0.0
aF0.0
aF0.0
aa(lp12
F0.0
aF0.0
aF0.0
aF0.0
aF0.0
aF0.0
aF0.0
aa(lp13
F0.0
aF0.0
aF0.0
aF0.0
aF0.0
aF0.0
aF0.0
aa(lp14
F0.0
aF0.0
aF0.0
aF0.0
aF0.0
aF0.0
aF0.0
aa(lp15
F0.0
aF0.0
aF0.0
aF0.0
aF0.0
aF0.0
aF0.0
aa(lp16
F0.0
aF0.0
aF0.0
aF0.0
aF0.0
aF0.0
aF0.0
aasS'id'
p17
(lp18
I0
aI1
aI2
aI3
aI4
aI5
aI6
aI7
aI8
asS'conf'
p19
(lp20
I1
aI1
aI1
aI1
aI1
aI1
aI1
aI1
aI1
as.(dp0
S'viz'
p1
(lp2
I00
aI00
aI00
aI00
aI00
aI00
aI00
aI00
aI00
asS'frame'
p3
(lp4
S'torso_lift_link'
p5
ag5
ag5
ag5
ag5
ag5
ag5
ag5
ag5
asS'pose'
p6
(lp7
(lp8
F0.0
aF0.0
aF0.0
aF0.0
aF0.0
aF0.0
aF0.0
aa(lp9
F0.0
aF0.0
aF0.0
aF0.0
aF0.0
aF0.0
aF0.0
aa(lp10
F0.0
aF0.0
aF0.0
aF0.0
aF0.0
aF0.0
aF0.0
aa(lp11
F0.0
aF0.0
aF0.0
aF0.0
aF0.0
aF0.0
aF0.0
aa(lp12
F0.0
aF0.0
aF0.0
aF0.0
aF0.0
aF0.0
aF0.0
aa(lp13
F0.0
aF0.0
aF0.0
aF0.0
aF0.0
aF0.0
aF0.0
aa(lp14
F0.0
aF0.0
aF0.0
aF0.0
aF0.0
aF0.0
aF0.0
aa(lp15
F0.0
aF0.0
aF0.0
aF0.0
aF0.0
aF0.0
aF0.0
aa(lp16
F0.0
aF0.0
aF0.0
aF0.0
aF0.0
aF0.0
aF0.0
aasS'id'
p17
(lp18
I0
aI1
aI2
aI3
aI4
aI5
aI6
aI7
aI8
asS'conf'
p19
(lp20
I1
aI1
aI1
aI1
aI1
aI1
aI1
aI1
aI1
as.(dp0
S'viz'
p1
(lp2
I00
aI00
aI00
aI00
aI00
aI00
aI00
aI00
aI00
asS'frame'
p3
(lp4
S'torso_lift_link'
p5
ag5
ag5
ag5
ag5
ag5
ag5
ag5
ag5
asS'pose'
p6
(lp7
(lp8
F0.0
aF0.0
aF0.0
aF0.0
aF0.0
aF0.0
aF0.0
aa(lp9
F0.0
aF0.0
aF0.0
aF0.0
aF0.0
aF0.0
aF0.0
aa(lp10
F0.0
aF0.0
aF0.0
aF0.0
aF0.0
aF0.0
aF0.0
aa(lp11
F0.0
aF0.0
aF0.0
aF0.0
aF0.0
aF0.0
aF0.0
aa(lp12
F0.0
aF0.0
aF0.0
aF0.0
aF0.0
aF0.0
aF0.0
aa(lp13
F0.0
aF0.0
aF0.0
aF0.0
aF0.0
aF0.0
aF0.0
aa(lp14
F0.0
aF0.0
aF0.0
aF0.0
aF0.0
aF0.0
aF0.0
aa(lp15
F0.0
aF0.0
aF0.0
aF0.0
aF0.0
aF0.0
aF0.0
aa(lp16
F0.0
aF0.0
aF0.0
aF0.0
aF0.0
aF0.0
aF0.0
aasS'id'
p17
(lp18
I0
aI1
aI2
aI3
aI4
aI5
aI6
aI7
aI8
asS'conf'
p19
(lp20
I1
aI1
aI1
aI1
aI1
aI1
aI1
aI1
aI1
as.(dp0
S'viz'
p1
(lp2
I00
aI00
aI00
aI00
aI00
aI00
aI00
aI00
aI00
asS'frame'
p3
(lp4
S'torso_lift_link'
p5
ag5
ag5
ag5
ag5
ag5
ag5
ag5
ag5
asS'pose'
p6
(lp7
(lp8
F0.0
aF0.0
aF0.0
aF0.0
aF0.0
aF0.0
aF0.0
aa(lp9
F0.0
aF0.0
aF0.0
aF0.0
aF0.0
aF0.0
aF0.0
aa(lp10
F0.0
aF0.0
aF0.0
aF0.0
aF0.0
aF0.0
aF0.0
aa(lp11
F0.0
aF0.0
aF0.0
aF0.0
aF0.0
aF0.0
aF0.0
aa(lp12
F0.0
aF0.0
aF0.0
aF0.0
aF0.0
aF0.0
aF0.0
aa(lp13
F0.0
aF0.0
aF0.0
aF0.0
aF0.0
aF0.0
aF0.0
aa(lp14
F0.0
aF0.0
aF0.0
aF0.0
aF0.0
aF0.0
aF0.0
aa(lp15
F0.0
aF0.0
aF0.0
aF0.0
aF0.0
aF0.0
aF0.0
aa(lp16
F0.0
aF0.0
aF0.0
aF0.0
aF0.0
aF0.0
aF0.0
aasS'id'
p17
(lp18
I0
aI1
aI2
aI3
aI4
aI5
aI6
aI7
aI8
asS'conf'
p19
(lp20
I1
aI1
aI1
aI1
aI1
aI1
aI1
aI1
aI1
as.(dp0
S'viz'
p1
(lp2
I00
aI00
aI00
aI00
aI00
aI00
aI00
aI00
aI00
asS'frame'
p3
(lp4
S'torso_lift_link'
p5
ag5
ag5
ag5
ag5
ag5
ag5
ag5
ag5
asS'pose'
p6
(lp7
(lp8
F0.0
aF0.0
aF0.0
aF0.0
aF0.0
aF0.0
aF0.0
aa(lp9
F0.0
aF0.0
aF0.0
aF0.0
aF0.0
aF0.0
aF0.0
aa(lp10
F0.0
aF0.0
aF0.0
aF0.0
aF0.0
aF0.0
aF0.0
aa(lp11
F0.0
aF0.0
aF0.0
aF0.0
aF0.0
aF0.0
aF0.0
aa(lp12
F0.0
aF0.0
aF0.0
aF0.0
aF0.0
aF0.0
aF0.0
aa(lp13
F0.0
aF0.0
aF0.0
aF0.0
aF0.0
aF0.0
aF0.0
aa(lp14
F0.0
aF0.0
aF0.0
aF0.0
aF0.0
aF0.0
aF0.0
aa(lp15
F0.0
aF0.0
aF0.0
aF0.0
aF0.0
aF0.0
aF0.0
aa(lp16
F0.0
aF0.0
aF0.0
aF0.0
aF0.0
aF0.0
aF0.0
aasS'id'
p17
(lp18
I0
aI1
aI2
aI3
aI4
aI5
aI6
aI7
aI8
asS'conf'
p19
(lp20
I1
aI1
aI1
aI1
aI1
aI1
aI1
aI1
aI1
as.(dp0
S'viz'
p1
(lp2
I00
aI00
aI00
aI00
aI00
aI00
aI00
aI00
aI00
asS'frame'
p3
(lp4
S'torso_lift_link'
p5
ag5
ag5
ag5
ag5
ag5
ag5
ag5
ag5
asS'pose'
p6
(lp7
(lp8
F0.0
aF0.0
aF0.0
aF0.0
aF0.0
aF0.0
aF0.0
aa(lp9
F0.0
aF0.0
aF0.0
aF0.0
aF0.0
aF0.0
aF0.0
aa(lp10
F0.0
aF0.0
aF0.0
aF0.0
aF0.0
aF0.0
aF0.0
aa(lp11
F0.0
aF0.0
aF0.0
aF0.0
aF0.0
aF0.0
aF0.0
aa(lp12
F0.0
aF0.0
aF0.0
aF0.0
aF0.0
aF0.0
aF0.0
aa(lp13
F0.0
aF0.0
aF0.0
aF0.0
aF0.0
aF0.0
aF0.0
aa(lp14
F0.0
aF0.0
aF0.0
aF0.0
aF0.0
aF0.0
aF0.0
aa(lp15
F0.0
aF0.0
aF0.0
aF0.0
aF0.0
aF0.0
aF0.0
aa(lp16
F0.0
aF0.0
aF0.0
aF0.0
aF0.0
aF0.0
aF0.0
aasS'id'
p17
(lp18
I0
aI1
aI2
aI3
aI4
aI5
aI6
aI7
aI8
asS'conf'
p19
(lp20
I1
aI1
aI1
aI1
aI1
aI1
aI1
aI1
aI1
as.(dp0
S'viz'
p1
(lp2
I00
aI00
aI00
aI00
aI00
aI00
aI00
aI00
aI00
asS'frame'
p3
(lp4
S'torso_lift_link'
p5
ag5
ag5
ag5
ag5
ag5
ag5
ag5
ag5
asS'pose'
p6
(lp7
(lp8
F0.0
aF0.0
aF0.0
aF0.0
aF0.0
aF0.0
aF0.0
aa(lp9
F0.0
aF0.0
aF0.0
aF0.0
aF0.0
aF0.0
aF0.0
aa(lp10
F0.0
aF0.0
aF0.0
aF0.0
aF0.0
aF0.0
aF0.0
aa(lp11
F0.0
aF0.0
aF0.0
aF0.0
aF0.0
aF0.0
aF0.0
aa(lp12
F0.0
aF0.0
aF0.0
aF0.0
aF0.0
aF0.0
aF0.0
aa(lp13
F0.0
aF0.0
aF0.0
aF0.0
aF0.0
aF0.0
aF0.0
aa(lp14
F0.0
aF0.0
aF0.0
aF0.0
aF0.0
aF0.0
aF0.0
aa(lp15
F0.0
aF0.0
aF0.0
aF0.0
aF0.0
aF0.0
aF0.0
aa(lp16
F0.0
aF0.0
aF0.0
aF0.0
aF0.0
aF0.0
aF0.0
aasS'id'
p17
(lp18
I0
aI1
aI2
aI3
aI4
aI5
aI6
aI7
aI8
asS'conf'
p19
(lp20
I1
aI1
aI1
aI1
aI1
aI1
aI1
aI1
aI1
as.(dp0
S'viz'
p1
(lp2
I00
aI00
aI00
aI00
aI00
aI00
aI00
aI00
aI00
asS'frame'
p3
(lp4
S'torso_lift_link'
p5
ag5
ag5
ag5
ag5
ag5
ag5
ag5
ag5
asS'pose'
p6
(lp7
(lp8
F0.0
aF0.0
aF0.0
aF0.0
aF0.0
aF0.0
aF0.0
aa(lp9
F0.0
aF0.0
aF0.0
aF0.0
aF0.0
aF0.0
aF0.0
aa(lp10
F0.0
aF0.0
aF0.0
aF0.0
aF0.0
aF0.0
aF0.0
aa(lp11
F0.0
aF0.0
aF0.0
aF0.0
aF0.0
aF0.0
aF0.0
aa(lp12
F0.0
aF0.0
aF0.0
aF0.0
aF0.0
aF0.0
aF0.0
aa(lp13
F0.0
aF0.0
aF0.0
aF0.0
aF0.0
aF0.0
aF0.0
aa(lp14
F0.0
aF0.0
aF0.0
aF0.0
aF0.0
aF0.0
aF0.0
aa(lp15
F0.0
aF0.0
aF0.0
aF0.0
aF0.0
aF0.0
aF0.0
aa(lp16
F0.0
aF0.0
aF0.0
aF0.0
aF0.0
aF0.0
aF0.0
aasS'id'
p17
(lp18
I0
aI1
aI2
aI3
aI4
aI5
aI6
aI7
aI8
asS'conf'
p19
(lp20
I1
aI1
aI1
aI1
aI1
aI1
aI1
aI1
aI1
as.(dp0
S'viz'
p1
(lp2
I00
aI00
aI00
aI00
aI00
aI00
aI00
aI00
aI00
asS'frame'
p3
(lp4
S'torso_lift_link'
p5
ag5
ag5
ag5
ag5
ag5
ag5
ag5
ag5
asS'pose'
p6
(lp7
(lp8
F0.0
aF0.0
aF0.0
aF0.0
aF0.0
aF0.0
aF0.0
aa(lp9
F0.0
aF0.0
aF0.0
aF0.0
aF0.0
aF0.0
aF0.0
aa(lp10
F0.0
aF0.0
aF0.0
aF0.0
aF0.0
aF0.0
aF0.0
aa(lp11
F0.0
aF0.0
aF0.0
aF0.0
aF0.0
aF0.0
aF0.0
aa(lp12
F0.0
aF0.0
aF0.0
aF0.0
aF0.0
aF0.0
aF0.0
aa(lp13
F0.0
aF0.0
aF0.0
aF0.0
aF0.0
aF0.0
aF0.0
aa(lp14
F0.0
aF0.0
aF0.0
aF0.0
aF0.0
aF0.0
aF0.0
aa(lp15
F0.0
aF0.0
aF0.0
aF0.0
aF0.0
aF0.0
aF0.0
aa(lp16
F0.0
aF0.0
aF0.0
aF0.0
aF0.0
aF0.0
aF0.0
aasS'id'
p17
(lp18
I0
aI1
aI2
aI3
aI4
aI5
aI6
aI7
aI8
asS'conf'
p19
(lp20
I1
aI1
aI1
aI1
aI1
aI1
aI1
aI1
aI1
as.(dp0
S'viz'
p1
(lp2
I00
aI00
aI00
aI00
aI00
aI00
aI00
aI00
aI00
asS'frame'
p3
(lp4
S'torso_lift_link'
p5
ag5
ag5
ag5
ag5
ag5
ag5
ag5
ag5
asS'pose'
p6
(lp7
(lp8
F0.0
aF0.0
aF0.0
aF0.0
aF0.0
aF0.0
aF0.0
aa(lp9
F0.0
aF0.0
aF0.0
aF0.0
aF0.0
aF0.0
aF0.0
aa(lp10
F0.0
aF0.0
aF0.0
aF0.0
aF0.0
aF0.0
aF0.0
aa(lp11
F0.0
aF0.0
aF0.0
aF0.0
aF0.0
aF0.0
aF0.0
aa(lp12
F0.0
aF0.0
aF0.0
aF0.0
aF0.0
aF0.0
aF0.0
aa(lp13
F0.0
aF0.0
aF0.0
aF0.0
aF0.0
aF0.0
aF0.0
aa(lp14
F0.0
aF0.0
aF0.0
aF0.0
aF0.0
aF0.0
aF0.0
aa(lp15
F0.0
aF0.0
aF0.0
aF0.0
aF0.0
aF0.0
aF0.0
aa(lp16
F0.0
aF0.0
aF0.0
aF0.0
aF0.0
aF0.0
aF0.0
aasS'id'
p17
(lp18
I0
aI1
aI2
aI3
aI4
aI5
aI6
aI7
aI8
asS'conf'
p19
(lp20
I1
aI1
aI1
aI1
aI1
aI1
aI1
aI1
aI1
as.(dp0
S'viz'
p1
(lp2
I00
aI00
aI00
aI00
aI00
aI00
aI00
aI00
aI00
asS'frame'
p3
(lp4
S'torso_lift_link'
p5
ag5
ag5
ag5
ag5
ag5
ag5
ag5
ag5
asS'pose'
p6
(lp7
(lp8
F0.0
aF0.0
aF0.0
aF0.0
aF0.0
aF0.0
aF0.0
aa(lp9
F0.0
aF0.0
aF0.0
aF0.0
aF0.0
aF0.0
aF0.0
aa(lp10
F0.0
aF0.0
aF0.0
aF0.0
aF0.0
aF0.0
aF0.0
aa(lp11
F0.0
aF0.0
aF0.0
aF0.0
aF0.0
aF0.0
aF0.0
aa(lp12
F0.0
aF0.0
aF0.0
aF0.0
aF0.0
aF0.0
aF0.0
aa(lp13
F0.0
aF0.0
aF0.0
aF0.0
aF0.0
aF0.0
aF0.0
aa(lp14
F0.0
aF0.0
aF0.0
aF0.0
aF0.0
aF0.0
aF0.0
aa(lp15
F0.0
aF0.0
aF0.0
aF0.0
aF0.0
aF0.0
aF0.0
aa(lp16
F0.0
aF0.0
aF0.0
aF0.0
aF0.0
aF0.0
aF0.0
aasS'id'
p17
(lp18
I0
aI1
aI2
aI3
aI4
aI5
aI6
aI7
aI8
asS'conf'
p19
(lp20
I1
aI1
aI1
aI1
aI1
aI1
aI1
aI1
aI1
as.(dp0
S'viz'
p1
(lp2
I00
aI00
aI00
aI00
aI00
aI00
aI00
aI00
aI00
asS'frame'
p3
(lp4
S'torso_lift_link'
p5
ag5
ag5
ag5
ag5
ag5
ag5
ag5
ag5
asS'pose'
p6
(lp7
(lp8
F0.0
aF0.0
aF0.0
aF0.0
aF0.0
aF0.0
aF0.0
aa(lp9
F0.0
aF0.0
aF0.0
aF0.0
aF0.0
aF0.0
aF0.0
aa(lp10
F0.0
aF0.0
aF0.0
aF0.0
aF0.0
aF0.0
aF0.0
aa(lp11
F0.0
aF0.0
aF0.0
aF0.0
aF0.0
aF0.0
aF0.0
aa(lp12
F0.0
aF0.0
aF0.0
aF0.0
aF0.0
aF0.0
aF0.0
aa(lp13
F0.0
aF0.0
aF0.0
aF0.0
aF0.0
aF0.0
aF0.0
aa(lp14
F0.0
aF0.0
aF0.0
aF0.0
aF0.0
aF0.0
aF0.0
aa(lp15
F0.0
aF0.0
aF0.0
aF0.0
aF0.0
aF0.0
aF0.0
aa(lp16
F0.0
aF0.0
aF0.0
aF0.0
aF0.0
aF0.0
aF0.0
aasS'id'
p17
(lp18
I0
aI1
aI2
aI3
aI4
aI5
aI6
aI7
aI8
asS'conf'
p19
(lp20
I1
aI1
aI1
aI1
aI1
aI1
aI1
aI1
aI1
as.(dp0
S'viz'
p1
(lp2
I00
aI00
aI00
aI00
aI00
aI00
aI00
aI00
aI00
asS'frame'
p3
(lp4
S'torso_lift_link'
p5
ag5
ag5
ag5
ag5
ag5
ag5
ag5
ag5
asS'pose'
p6
(lp7
(lp8
F0.0
aF0.0
aF0.0
aF0.0
aF0.0
aF0.0
aF0.0
aa(lp9
F0.0
aF0.0
aF0.0
aF0.0
aF0.0
aF0.0
aF0.0
aa(lp10
F0.0
aF0.0
aF0.0
aF0.0
aF0.0
aF0.0
aF0.0
aa(lp11
F0.0
aF0.0
aF0.0
aF0.0
aF0.0
aF0.0
aF0.0
aa(lp12
F0.0
aF0.0
aF0.0
aF0.0
aF0.0
aF0.0
aF0.0
aa(lp13
F0.0
aF0.0
aF0.0
aF0.0
aF0.0
aF0.0
aF0.0
aa(lp14
F0.0
aF0.0
aF0.0
aF0.0
aF0.0
aF0.0
aF0.0
aa(lp15
F0.0
aF0.0
aF0.0
aF0.0
aF0.0
aF0.0
aF0.0
aa(lp16
F0.0
aF0.0
aF0.0
aF0.0
aF0.0
aF0.0
aF0.0
aasS'id'
p17
(lp18
I0
aI1
aI2
aI3
aI4
aI5
aI6
aI7
aI8
asS'conf'
p19
(lp20
I1
aI1
aI1
aI1
aI1
aI1
aI1
aI1
aI1
as.(dp0
S'viz'
p1
(lp2
I00
aI00
aI00
aI00
aI00
aI00
aI00
aI00
aI00
asS'frame'
p3
(lp4
S'torso_lift_link'
p5
ag5
ag5
ag5
ag5
ag5
ag5
ag5
ag5
asS'pose'
p6
(lp7
(lp8
F0.0
aF0.0
aF0.0
aF0.0
aF0.0
aF0.0
aF0.0
aa(lp9
F0.0
aF0.0
aF0.0
aF0.0
aF0.0
aF0.0
aF0.0
aa(lp10
F0.0
aF0.0
aF0.0
aF0.0
aF0.0
aF0.0
aF0.0
aa(lp11
F0.0
aF0.0
aF0.0
aF0.0
aF0.0
aF0.0
aF0.0
aa(lp12
F0.0
aF0.0
aF0.0
aF0.0
aF0.0
aF0.0
aF0.0
aa(lp13
F0.0
aF0.0
aF0.0
aF0.0
aF0.0
aF0.0
aF0.0
aa(lp14
F0.0
aF0.0
aF0.0
aF0.0
aF0.0
aF0.0
aF0.0
aa(lp15
F0.0
aF0.0
aF0.0
aF0.0
aF0.0
aF0.0
aF0.0
aa(lp16
F0.0
aF0.0
aF0.0
aF0.0
aF0.0
aF0.0
aF0.0
aasS'id'
p17
(lp18
I0
aI1
aI2
aI3
aI4
aI5
aI6
aI7
aI8
asS'conf'
p19
(lp20
I1
aI1
aI1
aI1
aI1
aI1
aI1
aI1
aI1
as.(dp0
S'viz'
p1
(lp2
I00
aI00
aI00
aI00
aI00
aI00
aI00
aI00
aI00
asS'frame'
p3
(lp4
S'torso_lift_link'
p5
ag5
ag5
ag5
ag5
ag5
ag5
ag5
ag5
asS'pose'
p6
(lp7
(lp8
F0.0
aF0.0
aF0.0
aF0.0
aF0.0
aF0.0
aF0.0
aa(lp9
F0.0
aF0.0
aF0.0
aF0.0
aF0.0
aF0.0
aF0.0
aa(lp10
F0.0
aF0.0
aF0.0
aF0.0
aF0.0
aF0.0
aF0.0
aa(lp11
F0.0
aF0.0
aF0.0
aF0.0
aF0.0
aF0.0
aF0.0
aa(lp12
F0.0
aF0.0
aF0.0
aF0.0
aF0.0
aF0.0
aF0.0
aa(lp13
F0.0
aF0.0
aF0.0
aF0.0
aF0.0
aF0.0
aF0.0
aa(lp14
F0.0
aF0.0
aF0.0
aF0.0
aF0.0
aF0.0
aF0.0
aa(lp15
F0.0
aF0.0
aF0.0
aF0.0
aF0.0
aF0.0
aF0.0
aa(lp16
F0.0
aF0.0
aF0.0
aF0.0
aF0.0
aF0.0
aF0.0
aasS'id'
p17
(lp18
I0
aI1
aI2
aI3
aI4
aI5
aI6
aI7
aI8
asS'conf'
p19
(lp20
I1
aI1
aI1
aI1
aI1
aI1
aI1
aI1
aI1
as.(dp0
S'viz'
p1
(lp2
I00
aI00
aI00
aI00
aI00
aI00
aI00
aI00
aI00
asS'frame'
p3
(lp4
S'torso_lift_link'
p5
ag5
ag5
ag5
ag5
ag5
ag5
ag5
ag5
asS'pose'
p6
(lp7
(lp8
F0.0
aF0.0
aF0.0
aF0.0
aF0.0
aF0.0
aF0.0
aa(lp9
F0.0
aF0.0
aF0.0
aF0.0
aF0.0
aF0.0
aF0.0
aa(lp10
F0.0
aF0.0
aF0.0
aF0.0
aF0.0
aF0.0
aF0.0
aa(lp11
F0.0
aF0.0
aF0.0
aF0.0
aF0.0
aF0.0
aF0.0
aa(lp12
F0.0
aF0.0
aF0.0
aF0.0
aF0.0
aF0.0
aF0.0
aa(lp13
F0.0
aF0.0
aF0.0
aF0.0
aF0.0
aF0.0
aF0.0
aa(lp14
F0.0
aF0.0
aF0.0
aF0.0
aF0.0
aF0.0
aF0.0
aa(lp15
F0.0
aF0.0
aF0.0
aF0.0
aF0.0
aF0.0
aF0.0
aa(lp16
F0.0
aF0.0
aF0.0
aF0.0
aF0.0
aF0.0
aF0.0
aasS'id'
p17
(lp18
I0
aI1
aI2
aI3
aI4
aI5
aI6
aI7
aI8
asS'conf'
p19
(lp20
I1
aI1
aI1
aI1
aI1
aI1
aI1
aI1
aI1
as.(dp0
S'viz'
p1
(lp2
I00
aI00
aI00
aI00
aI00
aI00
aI00
aI00
aI00
asS'frame'
p3
(lp4
S'torso_lift_link'
p5
ag5
ag5
ag5
ag5
ag5
ag5
ag5
ag5
asS'pose'
p6
(lp7
(lp8
F0.0
aF0.0
aF0.0
aF0.0
aF0.0
aF0.0
aF0.0
aa(lp9
F0.0
aF0.0
aF0.0
aF0.0
aF0.0
aF0.0
aF0.0
aa(lp10
F0.0
aF0.0
aF0.0
aF0.0
aF0.0
aF0.0
aF0.0
aa(lp11
F0.0
aF0.0
aF0.0
aF0.0
aF0.0
aF0.0
aF0.0
aa(lp12
F0.0
aF0.0
aF0.0
aF0.0
aF0.0
aF0.0
aF0.0
aa(lp13
F0.0
aF0.0
aF0.0
aF0.0
aF0.0
aF0.0
aF0.0
aa(lp14
F0.0
aF0.0
aF0.0
aF0.0
aF0.0
aF0.0
aF0.0
aa(lp15
F0.0
aF0.0
aF0.0
aF0.0
aF0.0
aF0.0
aF0.0
aa(lp16
F0.0
aF0.0
aF0.0
aF0.0
aF0.0
aF0.0
aF0.0
aasS'id'
p17
(lp18
I0
aI1
aI2
aI3
aI4
aI5
aI6
aI7
aI8
asS'conf'
p19
(lp20
I1
aI1
aI1
aI1
aI1
aI1
aI1
aI1
aI1
as.(dp0
S'viz'
p1
(lp2
I00
aI00
aI00
aI00
aI00
aI00
aI00
aI00
aI00
asS'frame'
p3
(lp4
S'torso_lift_link'
p5
ag5
ag5
ag5
ag5
ag5
ag5
ag5
ag5
asS'pose'
p6
(lp7
(lp8
F0.0
aF0.0
aF0.0
aF0.0
aF0.0
aF0.0
aF0.0
aa(lp9
F0.0
aF0.0
aF0.0
aF0.0
aF0.0
aF0.0
aF0.0
aa(lp10
F0.0
aF0.0
aF0.0
aF0.0
aF0.0
aF0.0
aF0.0
aa(lp11
F0.0
aF0.0
aF0.0
aF0.0
aF0.0
aF0.0
aF0.0
aa(lp12
F0.0
aF0.0
aF0.0
aF0.0
aF0.0
aF0.0
aF0.0
aa(lp13
F0.0
aF0.0
aF0.0
aF0.0
aF0.0
aF0.0
aF0.0
aa(lp14
F0.0
aF0.0
aF0.0
aF0.0
aF0.0
aF0.0
aF0.0
aa(lp15
F0.0
aF0.0
aF0.0
aF0.0
aF0.0
aF0.0
aF0.0
aa(lp16
F0.0
aF0.0
aF0.0
aF0.0
aF0.0
aF0.0
aF0.0
aasS'id'
p17
(lp18
I0
aI1
aI2
aI3
aI4
aI5
aI6
aI7
aI8
asS'conf'
p19
(lp20
I1
aI1
aI1
aI1
aI1
aI1
aI1
aI1
aI1
as.(dp0
S'viz'
p1
(lp2
I00
aI00
aI00
aI00
aI00
aI00
aI00
aI00
aI00
asS'frame'
p3
(lp4
S'torso_lift_link'
p5
ag5
ag5
ag5
ag5
ag5
ag5
ag5
ag5
asS'pose'
p6
(lp7
(lp8
F0.0
aF0.0
aF0.0
aF0.0
aF0.0
aF0.0
aF0.0
aa(lp9
F0.0
aF0.0
aF0.0
aF0.0
aF0.0
aF0.0
aF0.0
aa(lp10
F0.0
aF0.0
aF0.0
aF0.0
aF0.0
aF0.0
aF0.0
aa(lp11
F0.0
aF0.0
aF0.0
aF0.0
aF0.0
aF0.0
aF0.0
aa(lp12
F0.0
aF0.0
aF0.0
aF0.0
aF0.0
aF0.0
aF0.0
aa(lp13
F0.0
aF0.0
aF0.0
aF0.0
aF0.0
aF0.0
aF0.0
aa(lp14
F0.0
aF0.0
aF0.0
aF0.0
aF0.0
aF0.0
aF0.0
aa(lp15
F0.0
aF0.0
aF0.0
aF0.0
aF0.0
aF0.0
aF0.0
aa(lp16
F0.0
aF0.0
aF0.0
aF0.0
aF0.0
aF0.0
aF0.0
aasS'id'
p17
(lp18
I0
aI1
aI2
aI3
aI4
aI5
aI6
aI7
aI8
asS'conf'
p19
(lp20
I1
aI1
aI1
aI1
aI1
aI1
aI1
aI1
aI1
as.(dp0
S'viz'
p1
(lp2
I00
aI00
aI00
aI00
aI00
aI00
aI00
aI00
aI00
asS'frame'
p3
(lp4
S'torso_lift_link'
p5
ag5
ag5
ag5
ag5
ag5
ag5
ag5
ag5
asS'pose'
p6
(lp7
(lp8
F0.0
aF0.0
aF0.0
aF0.0
aF0.0
aF0.0
aF0.0
aa(lp9
F0.0
aF0.0
aF0.0
aF0.0
aF0.0
aF0.0
aF0.0
aa(lp10
F0.0
aF0.0
aF0.0
aF0.0
aF0.0
aF0.0
aF0.0
aa(lp11
F0.0
aF0.0
aF0.0
aF0.0
aF0.0
aF0.0
aF0.0
aa(lp12
F0.0
aF0.0
aF0.0
aF0.0
aF0.0
aF0.0
aF0.0
aa(lp13
F0.0
aF0.0
aF0.0
aF0.0
aF0.0
aF0.0
aF0.0
aa(lp14
F0.0
aF0.0
aF0.0
aF0.0
aF0.0
aF0.0
aF0.0
aa(lp15
F0.0
aF0.0
aF0.0
aF0.0
aF0.0
aF0.0
aF0.0
aa(lp16
F0.0
aF0.0
aF0.0
aF0.0
aF0.0
aF0.0
aF0.0
aasS'id'
p17
(lp18
I0
aI1
aI2
aI3
aI4
aI5
aI6
aI7
aI8
asS'conf'
p19
(lp20
I1
aI1
aI1
aI1
aI1
aI1
aI1
aI1
aI1
as.(dp0
S'viz'
p1
(lp2
I00
aI00
aI00
aI00
aI00
aI00
aI00
aI00
aI00
asS'frame'
p3
(lp4
S'torso_lift_link'
p5
ag5
ag5
ag5
ag5
ag5
ag5
ag5
ag5
asS'pose'
p6
(lp7
(lp8
F0.0
aF0.0
aF0.0
aF0.0
aF0.0
aF0.0
aF0.0
aa(lp9
F0.0
aF0.0
aF0.0
aF0.0
aF0.0
aF0.0
aF0.0
aa(lp10
F0.0
aF0.0
aF0.0
aF0.0
aF0.0
aF0.0
aF0.0
aa(lp11
F0.0
aF0.0
aF0.0
aF0.0
aF0.0
aF0.0
aF0.0
aa(lp12
F0.0
aF0.0
aF0.0
aF0.0
aF0.0
aF0.0
aF0.0
aa(lp13
F0.0
aF0.0
aF0.0
aF0.0
aF0.0
aF0.0
aF0.0
aa(lp14
F0.0
aF0.0
aF0.0
aF0.0
aF0.0
aF0.0
aF0.0
aa(lp15
F0.0
aF0.0
aF0.0
aF0.0
aF0.0
aF0.0
aF0.0
aa(lp16
F0.0
aF0.0
aF0.0
aF0.0
aF0.0
aF0.0
aF0.0
aasS'id'
p17
(lp18
I0
aI1
aI2
aI3
aI4
aI5
aI6
aI7
aI8
asS'conf'
p19
(lp20
I1
aI1
aI1
aI1
aI1
aI1
aI1
aI1
aI1
as.(dp0
S'viz'
p1
(lp2
I00
aI00
aI00
aI00
aI00
aI00
aI00
aI00
aI00
asS'frame'
p3
(lp4
S'torso_lift_link'
p5
ag5
ag5
ag5
ag5
ag5
ag5
ag5
ag5
asS'pose'
p6
(lp7
(lp8
F0.0
aF0.0
aF0.0
aF0.0
aF0.0
aF0.0
aF0.0
aa(lp9
F0.0
aF0.0
aF0.0
aF0.0
aF0.0
aF0.0
aF0.0
aa(lp10
F0.0
aF0.0
aF0.0
aF0.0
aF0.0
aF0.0
aF0.0
aa(lp11
F0.0
aF0.0
aF0.0
aF0.0
aF0.0
aF0.0
aF0.0
aa(lp12
F0.0
aF0.0
aF0.0
aF0.0
aF0.0
aF0.0
aF0.0
aa(lp13
F0.0
aF0.0
aF0.0
aF0.0
aF0.0
aF0.0
aF0.0
aa(lp14
F0.0
aF0.0
aF0.0
aF0.0
aF0.0
aF0.0
aF0.0
aa(lp15
F0.0
aF0.0
aF0.0
aF0.0
aF0.0
aF0.0
aF0.0
aa(lp16
F0.0
aF0.0
aF0.0
aF0.0
aF0.0
aF0.0
aF0.0
aasS'id'
p17
(lp18
I0
aI1
aI2
aI3
aI4
aI5
aI6
aI7
aI8
asS'conf'
p19
(lp20
I1
aI1
aI1
aI1
aI1
aI1
aI1
aI1
aI1
as.(dp0
S'viz'
p1
(lp2
I00
aI00
aI00
aI00
aI00
aI00
aI00
aI00
aI00
asS'frame'
p3
(lp4
S'torso_lift_link'
p5
ag5
ag5
ag5
ag5
ag5
ag5
ag5
ag5
asS'pose'
p6
(lp7
(lp8
F0.0
aF0.0
aF0.0
aF0.0
aF0.0
aF0.0
aF0.0
aa(lp9
F0.0
aF0.0
aF0.0
aF0.0
aF0.0
aF0.0
aF0.0
aa(lp10
F0.0
aF0.0
aF0.0
aF0.0
aF0.0
aF0.0
aF0.0
aa(lp11
F0.0
aF0.0
aF0.0
aF0.0
aF0.0
aF0.0
aF0.0
aa(lp12
F0.0
aF0.0
aF0.0
aF0.0
aF0.0
aF0.0
aF0.0
aa(lp13
F0.0
aF0.0
aF0.0
aF0.0
aF0.0
aF0.0
aF0.0
aa(lp14
F0.0
aF0.0
aF0.0
aF0.0
aF0.0
aF0.0
aF0.0
aa(lp15
F0.0
aF0.0
aF0.0
aF0.0
aF0.0
aF0.0
aF0.0
aa(lp16
F0.0
aF0.0
aF0.0
aF0.0
aF0.0
aF0.0
aF0.0
aasS'id'
p17
(lp18
I0
aI1
aI2
aI3
aI4
aI5
aI6
aI7
aI8
asS'conf'
p19
(lp20
I1
aI1
aI1
aI1
aI1
aI1
aI1
aI1
aI1
as.(dp0
S'viz'
p1
(lp2
I01
aI01
aI01
aI01
aI01
aI00
aI00
aI00
aI00
asS'frame'
p3
(lp4
S'torso_lift_link'
p5
ag5
ag5
ag5
ag5
ag5
ag5
ag5
ag5
asS'pose'
p6
(lp7
(lp8
F0.5370819939941657
aF-0.02321826692223995
aF-0.030234162909451936
aF-0.16709356837312736
aF-0.4607845521649487
aF-0.2069607912674492
aF0.8467139816800203
aa(lp9
F0.5710741023958466
aF0.03643672331983673
aF-0.030592512270366575
aF-0.09122316302150775
aF-0.487065981219978
aF-0.1831787646777374
aF0.8490527690536729
aa(lp10
F0.6008518831229505
aF0.021207775212364565
aF0.023884645898907035
aF-0.09756743079948162
aF-0.4766200963878164
aF-0.18930136251495505
aF0.8529237212766676
aa(lp11
F0.5674487444070669
aF-0.037703895776305604
aF0.023404922204999713
aF-0.14841635357086805
aF-0.4602729638037143
aF-0.2470310408099614
aF0.8397005714303277
aa(lp12
F0.6164151217873014
aF-0.10420887090568312
aF0.03131327496765401
aF-0.20776577523028558
aF0.4243868902463725
aF0.7633160247715586
aF-0.44054261582384663
aa(lp13
F0.0
aF0.0
aF0.0
aF0.0
aF0.0
aF0.0
aF0.0
aa(lp14
F0.0
aF0.0
aF0.0
aF0.0
aF0.0
aF0.0
aF0.0
aa(lp15
F0.0
aF0.0
aF0.0
aF0.0
aF0.0
aF0.0
aF0.0
aa(lp16
F0.0
aF0.0
aF0.0
aF0.0
aF0.0
aF0.0
aF0.0
aasS'id'
p17
(lp18
I4
aI3
aI0
aI1
aI2
aI5
aI6
aI7
aI8
asS'conf'
p19
(lp20
I1
aI1
aI1
aI1
aI1
aI1
aI1
aI1
aI1
as.(dp0
S'viz'
p1
(lp2
I01
aI01
aI01
aI01
aI01
aI01
aI01
aI01
aI01
asS'frame'
p3
(lp4
S'torso_lift_link'
p5
ag5
ag5
ag5
ag5
ag5
ag5
ag5
ag5
asS'pose'
p6
(lp7
(lp8
F0.5309600186347961
aF-0.11476751044392575
aF-0.08638133898377408
aF-0.1606441073130078
aF-0.5775404822827817
aF-0.17283921769069222
aF0.7815158775983047
aa(lp9
F0.555089770983427
aF-0.051082944468212876
aF-0.08842431534177204
aF-0.10910029543315221
aF-0.571767192204694
aF-0.1412282131284229
aF0.8007708756387886
aa(lp10
F0.5738642252521751
aF0.01238080200819702
aF-0.0857330223108514
aF-0.04163309120309909
aF-0.5680974109780532
aF-0.11627789401368609
aF0.8136408720809505
aa(lp11
F0.5744321250621184
aF-0.058940355029002994
aF-0.02626021337453953
aF-0.12632408723212799
aF-0.5597465925756586
aF-0.16996416429467848
aF0.8011480262351777
aa(lp12
F0.5499231051176022
aF-0.12060017727124372
aF-0.025606985735253142
aF-0.1108740283326349
aF-0.5845264534295362
aF-0.1393892490788101
aF0.7915847474046147
aa(lp13
F0.5961358326452749
aF0.004029102380859028
aF-0.025109878292790034
aF-0.04558753995998734
aF-0.5649810468973427
aF-0.10868126222399457
aF0.8166434816298839
aa(lp14
F0.619012372729219
aF-0.004207923362048685
aF0.035789302780212584
aF-0.08068591264585523
aF-0.5527730630309098
aF-0.09218555610644905
aF0.8242775913084596
aa(lp15
F0.5947000309824944
aF-0.06716612162999795
aF0.035660287982318684
aF-0.1255379267207355
aF-0.5584997560443964
aF-0.16325717712278098
aF0.8035330395017433
aa(lp16
F0.5701111341700141
aF-0.12841323443033065
aF0.03754287139501113
aF-0.10006839934290535
aF-0.5672977702634212
aF-0.1558054167014082
aF0.8024239698772714
aasS'id'
p17
(lp18
I8
aI7
aI6
aI4
aI5
aI3
aI0
aI1
aI2
asS'conf'
p19
(lp20
I1
aI1
aI1
aI1
aI1
aI1
aI1
aI1
aI1
as.(dp0
S'viz'
p1
(lp2
I01
aI01
aI01
aI01
aI01
aI01
aI01
aI01
aI01
asS'frame'
p3
(lp4
S'torso_lift_link'
p5
ag5
ag5
ag5
ag5
ag5
ag5
ag5
ag5
asS'pose'
p6
(lp7
(lp8
F0.5718518760469224
aF-0.14720640406932348
aF-0.08009848858655222
aF-0.10987556466744354
aF-0.6261601190499622
aF-0.11464006207756453
aF0.7633534710520413
aa(lp9
F0.5885308922072987
aF-0.08084923361922473
aF-0.08004476668106171
aF-0.04190586354043859
aF-0.6145019539239738
aF-0.0805911269079301
aF0.7836684997422434
aa(lp10
F0.5950370673780088
aF-0.014528229712353267
aF-0.07703607796150948
aF-0.0025790819568655044
aF-0.6082893487291092
aF-0.03060488957293508
aF0.7931208970221403
aa(lp11
F0.6025062004725138
aF-0.08518823458824615
aF-0.015145174326823408
aF-0.07393043850433759
aF-0.624277766954611
aF-0.10621791609258706
aF0.7704085372383076
aa(lp12
F0.6126173182770058
aF-0.019358964934858735
aF-0.013793157854111568
aF-0.008132420719561228
aF-0.5954204078887475
aF-0.032835685682946265
aF0.8027018246824711
aa(lp13
F0.5834444739200451
aF-0.15039762138952428
aF-0.014015768109935631
aF-0.1170766901651014
aF-0.6338504390594727
aF-0.11416893715481585
aF0.7559709804701753
aa(lp14
F0.6313950890376244
aF-0.023745784810945296
aF0.050072278160556
aF-0.02674752151466687
aF-0.5927043929098124
aF-0.04828172640156955
aF0.8035265693266883
aa(lp15
F0.6154321284941685
aF-0.08881625291190015
aF0.05039127906899407
aF-0.12985193779556722
aF-0.6234488142498119
aF-0.10557264165189549
aF0.7637437185312099
aa(lp16
F0.5941605214719419
aF-0.15370459396530067
aF0.052712067064863796
aF-0.1109792111888531
aF-0.6366391179312904
aF-0.11022562966085989
aF0.7551321465607431
aasS'id'
p17
(lp18
I8
aI7
aI6
aI4
aI3
aI5
aI0
aI1
aI2
asS'conf'
p19
(lp20
I1
aI1
aI1
aI1
aI1
aI1
aI1
aI1
aI1
as.(dp0
S'viz'
p1
(lp2
I01
aI01
aI01
aI01
aI01
aI01
aI01
aI01
aI01
asS'frame'
p3
(lp4
S'torso_lift_link'
p5
ag5
ag5
ag5
ag5
ag5
ag5
ag5
ag5
asS'pose'
p6
(lp7
(lp8
F0.6191234816739588
aF-0.03911368691845335
aF-0.06781405481843288
aF-0.05414096043602654
aF-0.6461465347865408
aF-0.044030522546575905
aF0.7600162663197977
aa(lp9
F0.6097037343331325
aF-0.10617493821514964
aF-0.06718914040628761
aF-0.07398927957398328
aF-0.6533131454095294
aF-0.06937850278845159
aF0.7502627165827066
aa(lp10
F0.5930741002530228
aF-0.17330690052038344
aF-0.06491110335897504
aF-0.11337334465655222
aF-0.6689122791579807
aF-0.08224869171997473
aF0.7300260270863053
aa(lp11
F0.6288024915589226
aF-0.04015248777232705
aF-0.0018805056770135296
aF-0.05233450498469421
aF-0.6442138807667963
aF-0.04002119879759218
aF0.7620025453121496
aa(lp12
F0.6172469398121775
aF-0.10624029926127843
aF-5.049973634276401e-05
aF-0.09247850600061845
aF-0.6638806890194776
aF-0.08343767350713593
aF0.7373929151508263
aa(lp13
F0.5983827437883542
aF-0.17234936937873732
aF0.003654474112274327
aF-0.1065577584263439
aF-0.6775341593130537
aF-0.07592651373668238
aF0.7237596780664836
aa(lp14
F0.6394815224188345
aF-0.04015054777925704
aF0.06480092132165122
aF-0.05821623457182143
aF-0.6375906456338859
aF-0.04594155187414386
aF0.766797504197711
aa(lp15
F0.6235185464223226
aF-0.10597090466338897
aF0.0679870830089959
aF-0.111417439057257
aF-0.6657128346397327
aF-0.11468949575277931
aF0.7288750891845786
aa(lp16
F0.6028024995768512
aF-0.17187463539985948
aF0.07208836446573719
aF-0.0819803038586883
aF-0.6796707140917826
aF-0.08664913573684103
aF0.7237533263904643
aasS'id'
p17
(lp18
I6
aI7
aI8
aI3
aI4
aI5
aI0
aI1
aI2
asS'conf'
p19
(lp20
I1
aI1
aI1
aI1
aI1
aI1
aI1
aI1
aI1
as.(dp0
S'viz'
p1
(lp2
I01
aI01
aI01
aI01
aI01
aI01
aI01
aI01
aI01
asS'frame'
p3
(lp4
S'torso_lift_link'
p5
ag5
ag5
ag5
ag5
ag5
ag5
ag5
ag5
asS'pose'
p6
(lp7
(lp8
F0.6311481712776937
aF-0.06383359461654838
aF-0.04573941522818275
aF0.44372198266856366
aF-0.5146400356858978
aF-0.527670235293944
aF0.509725964171662
aa(lp9
F0.6230740937185876
aF-0.1319335637637125
aF-0.04155234849931268
aF-0.06695243077497712
aF-0.6956415957406948
aF-0.0292785395860739
aF0.7146627941962338
aa(lp10
F0.6078518842473443
aF-0.20079954071545292
aF-0.037015122901878104
aF-0.11728111180681965
aF-0.6975335569494826
aF-0.08288786225414238
aF0.7020125925036512
aa(lp11
F0.6351250290870667
aF-0.060457407101057334
aF0.02260916816594559
aF-0.058515130271659645
aF-0.6841275241258628
aF-0.015559851119993097
aF0.7268448261464283
aa(lp12
F0.6251358286834058
aF-0.1283397359244616
aF0.027202518024470473
aF-0.0743753622685787
aF-0.7041807258030498
aF-0.03729316831325181
aF0.7051290878215615
aa(lp13
F0.6074568217183337
aF-0.19633252193898315
aF0.032830924887992115
aF-0.11440658228909557
aF-0.7105919179888142
aF-0.07723885423756728
aF0.6899307352292507
aa(lp14
F0.6395555940675147
aF-0.05744693921074073
aF0.09108205158033503
aF-0.03615684352475375
aF-0.6777680817138684
aF-0.031454931168111135
aF0.7337122715216361
aa(lp15
F0.625617308381163
aF-0.12484961244059184
aF0.09690238149077818
aF-0.12287118263073221
aF-0.7008845372303617
aF-0.07422568487780787
aF0.6986802456451215
aa(lp16
F0.6056666977611589
aF-0.19214582012759301
aF0.10285170578662274
aF-0.09599757815629247
aF-0.709995612260647
aF-0.05786777065038443
aF0.6952280321439219
aasS'id'
p17
(lp18
I6
aI7
aI8
aI3
aI4
aI5
aI0
aI1
aI2
asS'conf'
p19
(lp20
I1
aI1
aI1
aI1
aI1
aI1
aI1
aI1
aI1
as.(dp0
S'viz'
p1
(lp2
I01
aI01
aI01
aI01
aI01
aI01
aI01
aI01
aI01
asS'frame'
p3
(lp4
S'torso_lift_link'
p5
ag5
ag5
ag5
ag5
ag5
ag5
ag5
ag5
asS'pose'
p6
(lp7
(lp8
F0.6282222499082117
aF-0.06672268364992393
aF-0.039915746445824934
aF0.4418755335176896
aF-0.5194511711908425
aF-0.5281308110195359
aF0.505958832395252
aa(lp9
F0.6186173094643487
aF-0.13438855508963254
aF-0.03597072526858531
aF-0.0744047019293088
aF-0.6909711477576609
aF-0.03976581835394795
aF0.7179425415643735
aa(lp10
F0.6016666992211047
aF-0.20279534521662143
aF-0.031354652206056884
aF-0.13900719613441567
aF-0.6880017159632692
aF-0.06832252268352224
aF0.7089870740349253
aa(lp11
F0.6326419998098303
aF-0.06360712771154466
aF0.028081483023678216
aF-0.0568096194057674
aF-0.6861699143840849
aF-0.01983095656639618
aF0.7249484456833956
aa(lp12
F0.6212839756482913
aF-0.13105035363524034
aF0.03288103678022284
aF-0.08860951480673321
aF-0.6969734585660682
aF-0.053265272480634514
aF0.709604934232938
aa(lp13
F0.6019506483902166
aF-0.19855269800733624
aF0.03863729815930141
aF-0.11775359111567998
aF-0.706055278215037
aF-0.08170696929629456
aF0.6935012667994649
aa(lp14
F0.6372750408947467
aF-0.06048335940577075
aF0.09713203050196184
aF-0.05937726308068704
aF-0.6770455761971611
aF-0.019760617912546116
aF0.7332756278239551
aa(lp15
F0.6221975573786983
aF-0.12792548529895723
aF0.1026186546609727
aF-0.12343910067271881
aF-0.7004108748342955
aF-0.08708128033441215
aF0.6975702441003968
aa(lp16
F0.6008518831229505
aF-0.19454520896629038
aF0.10860013649051586
aF-0.10888107955896677
aF-0.7094164772757717
aF-0.07200481802038314
aF0.692595465236064
aasS'id'
p17
(lp18
I6
aI7
aI8
aI3
aI4
aI5
aI0
aI1
aI2
asS'conf'
p19
(lp20
I1
aI1
aI1
aI1
aI1
aI1
aI1
aI1
aI1
as.(dp0
S'viz'
p1
(lp2
I01
aI01
aI01
aI01
aI01
aI01
aI01
aI01
aI01
asS'frame'
p3
(lp4
S'torso_lift_link'
p5
ag5
ag5
ag5
ag5
ag5
ag5
ag5
ag5
asS'pose'
p6
(lp7
(lp8
F0.6232099017979186
aF-0.06879017315345032
aF-0.03873959105507813
aF-0.42119956027306105
aF0.5254044913366406
aF0.5466452198346577
aF-0.49771483255071336
aa(lp9
F0.611395087507036
aF-0.13652561514833814
aF-0.03445254780214128
aF-0.0810512061728121
aF-0.6845550057462357
aF-0.04649147868201114
aF0.7229479154791605
aa(lp10
F0.5947407682736715
aF-0.2049493582896243
aF-0.029458626179185415
aF-0.12402382184121044
aF-0.6793141380431234
aF-0.09466191714117753
aF0.7170700906562656
aa(lp11
F0.6282345939565588
aF-0.065883823884306
aF0.0289929823915441
aF-0.06714965504015424
aF-0.6858051522344351
aF-0.030830219851429842
aF0.7240246643178699
aa(lp12
F0.615728423183347
aF-0.13333296326943372
aF0.03431755669966906
aF-0.08170876880870472
aF-0.6912330528260103
aF-0.04659680567711354
aF0.716483971545274
aa(lp13
F0.5970123807589213
aF-0.20111236778306357
aF0.04018363572749104
aF-0.11877811852573521
aF-0.6948130709844409
aF-0.08426422842192129
aF0.7042912002553453
aa(lp14
F0.6340617581650063
aF-0.06299641630209876
aF0.09777450386756745
aF-0.07174033677483682
aF-0.6688813873668378
aF-0.02907968259498307
aF0.7393276579256468
aa(lp15
F0.618679040008121
aF-0.13042988363239486
aF0.10402753148917812
aF-0.11966216437731753
aF-0.69004712555287
aF-0.08235370909652844
aF0.7090372328240613
aa(lp16
F0.5981111467620472
aF-0.1972995653564546
aF0.1100126002673751
aF-0.10944735809554365
aF-0.7008327844113126
aF-0.07473426806423283
aF0.7009061800819678
aasS'id'
p17
(lp18
I6
aI7
aI8
aI3
aI4
aI5
aI0
aI1
aI2
asS'conf'
p19
(lp20
I1
aI1
aI1
aI1
aI1
aI1
aI1
aI1
aI1
as.(dp0
S'viz'
p1
(lp2
I01
aI01
aI01
aI01
aI01
aI01
aI01
aI01
aI01
asS'frame'
p3
(lp4
S'torso_lift_link'
p5
ag5
ag5
ag5
ag5
ag5
ag5
ag5
ag5
asS'pose'
p6
(lp7
(lp8
F0.6157160820784392
aF-0.06668577604915611
aF-0.04677960377784409
aF0.44255216924639557
aF-0.49803187804613314
aF-0.551495763847963
aF0.5019604052142991
aa(lp9
F0.6067531145649192
aF-0.13468371029989204
aF-0.04366884497856639
aF-0.060572012064653874
aF-0.6753249922083914
aF-0.02837996054624828
aF0.7344806083842982
aa(lp10
F0.5934444717419001
aF-0.20398440912917795
aF-0.03926877396894077
aF-0.11185454815856388
aF-0.6756562546981763
aF-0.08380090717506677
aF0.7238470788088548
aa(lp11
F0.622675022482872
aF-0.06467543132603154
aF0.021259715529595408
aF-0.06330636768011418
aF-0.668966983850743
aF-0.0260377286834768
aF0.7401334440584314
aa(lp12
F0.6126666952062536
aF-0.13287455148902927
aF0.02542807934173385
aF-0.07491743971135777
aF-0.6782899417964773
aF-0.04188943300781129
aF0.7297639395634115
aa(lp13
F0.5965926235104785
aF-0.20129724759378537
aF0.031129807958172558
aF-0.0883257604349853
aF-0.6914895410430978
aF-0.0912878728341221
aF0.7111309998481354
aa(lp14
F0.6293827420399513
aF-0.06306236595559253
aF0.08963316255881476
aF-0.04562039028779757
aF-0.6606435995686871
aF-0.043576845070961094
aF0.7480440313996086
aa(lp15
F0.6167407668667075
aF-0.13076757908235348
aF0.09564826039620401
aF-0.10307030202295114
aF-0.6842466251450644
aF-0.06582932060854065
aF0.7189225058145733
aa(lp16
F0.5988889248282822
aF-0.1985543224178713
aF0.10140699092988628
aF-0.09343607282749924
aF-0.6946205706683316
aF-0.06216932415131969
aF0.7105680391303453
aasS'id'
p17
(lp18
I6
aI7
aI8
aI3
aI4
aI5
aI0
aI1
aI2
asS'conf'
p19
(lp20
I1
aI1
aI1
aI1
aI1
aI1
aI1
aI1
aI1
as.(dp0
S'viz'
p1
(lp2
I01
aI01
aI01
aI01
aI01
aI01
aI01
aI01
aI01
asS'frame'
p3
(lp4
S'torso_lift_link'
p5
ag5
ag5
ag5
ag5
ag5
ag5
ag5
ag5
asS'pose'
p6
(lp7
(lp8
F0.6236419986795496
aF-0.059694193988854366
aF-3.55202923125042e-05
aF-0.5160640086107696
aF-0.43283025188294294
aF0.4782286324145345
aF0.5635896443428106
aa(lp9
F0.6289259519106076
aF-0.06174291851527883
aF0.06866962251103968
aF-0.05108404542333683
aF-0.6769294789616627
aF-0.048857156285411374
aF0.73264580739644
aa(lp10
F0.618469163959409
aF-0.05749060785696816
aF-0.06796734094803702
aF-0.04049762417043356
aF-0.6717298008439408
aF-0.0722674972297233
aF0.7361497306518979
aa(lp11
F0.6063457094592812
aF-0.1248860735584187
aF-0.06866436608043704
aF-0.05747657800638682
aF-0.6785388016397972
aF-0.05974072003203358
aF0.729871621602017
aa(lp12
F0.5930123726526896
aF-0.19362258572637284
aF-0.06920028694065988
aF-0.5312987992408997
aF-0.42228954873691976
aF0.47293112942465054
aF0.5618979175738873
aa(lp13
F0.6117037336031595
aF-0.12706646177871717
aF1.4344250416752592e-06
aF-0.039323207008104114
aF-0.6796944628639499
aF-0.07947253811844586
aF0.7281162257687275
aa(lp14
F0.5976173156573449
aF-0.19586325567445623
aF0.0005898530297500063
aF-0.5288436903754712
aF-0.4357152897944835
aF0.46435024067651226
aF0.561119765623193
aa(lp15
F0.6159259551837121
aF-0.12950011344603538
aF0.0696067771425955
aF-0.06598634998390879
aF-0.6788831184133477
aF-0.06938214579602706
aF0.7279763945306941
aa(lp16
F0.601148185170727
aF-0.19776174087583268
aF0.07040391986568782
aF-0.056013746168269464
aF-0.6899106841391951
aF-0.058404548153554024
aF0.7193570858104921
aasS'id'
p17
(lp18
I3
aI0
aI6
aI7
aI8
aI4
aI5
aI1
aI2
asS'conf'
p19
(lp20
I1
aI1
aI1
aI1
aI1
aI1
aI1
aI1
aI1
as.(dp0
S'viz'
p1
(lp2
I01
aI01
aI01
aI01
aI01
aI01
aI01
aI01
aI01
asS'frame'
p3
(lp4
S'torso_lift_link'
p5
ag5
ag5
ag5
ag5
ag5
ag5
ag5
ag5
asS'pose'
p6
(lp7
(lp8
F0.6265443291845201
aF-0.06353942394916756
aF-0.005586269213611569
aF-0.5290040354185724
aF-0.45179953845176346
aF0.46871089292595924
aF0.5443730397605938
aa(lp9
F0.6287901489822952
aF-0.06545655780736297
aF0.06308611841113493
aF-0.5222341380497975
aF-0.4492620529923175
aF0.4702021490973402
aF0.5516747699331156
aa(lp10
F0.6247407654185354
aF-0.06163760375369465
aF-0.07373042252880542
aF-0.04341926854522238
aF-0.6939502383384799
aF-0.042324212020698776
aF0.7174653266226821
aa(lp11
F0.612629657910194
aF-0.1291252623185698
aF-0.07494134538703481
aF-0.06935819792109904
aF-0.6960292285770218
aF-0.06936111854869081
aF0.7112817926681999
aa(lp12
F0.5989753419970288
aF-0.19828108166470926
aF-0.07653951148192074
aF-0.5373978527515677
aF-0.4508380012598917
aF0.4481258529940941
aF0.5541947891818417
aa(lp13
F0.614111140186404
aF-0.13108973022964251
aF-0.005891816949264735
aF-0.04272440031102189
aF-0.6965272055590906
aF-0.08080425773820504
aF0.711684726171277
aa(lp14
F0.5998642334231624
aF-0.1999767203021931
aF-0.0063117346173024525
aF-0.5447338179629415
aF-0.44845080967295525
aF0.45380861414527546
aF0.5442560799832485
aa(lp15
F0.6152839771023503
aF-0.13339713760364189
aF0.06330749364914731
aF-0.06820796949037675
aF-0.7001755825012538
aF-0.06890742997362662
aF0.7073567647668746
aa(lp16
F0.6001111460320744
aF-0.20193133505038258
aF0.06355305563336551
aF-0.04543919973547777
aF-0.7029741282046367
aF-0.0777535606753702
aF0.7054906363692093
aasS'id'
p17
(lp18
I3
aI0
aI6
aI7
aI8
aI4
aI5
aI1
aI2
asS'conf'
p19
(lp20
I1
aI1
aI1
aI1
aI1
aI1
aI1
aI1
aI1
as.(dp0
S'viz'
p1
(lp2
I01
aI01
aI01
aI01
aI01
aI01
aI01
aI01
aI01
asS'frame'
p3
(lp4
S'torso_lift_link'
p5
ag5
ag5
ag5
ag5
ag5
ag5
ag5
ag5
asS'pose'
p6
(lp7
(lp8
F0.6244625262916088
aF-0.07100153856445089
aF0.01004615530691822
aF-0.046490606629721536
aF-0.7094959571013443
aF-0.04854470184700689
aF0.701496630266057
aa(lp9
F0.6237407635759424
aF-0.07213113776143672
aF0.07935540828807869
aF-0.030918814274304342
aF-0.7082643330072728
aF-0.06479320681928187
aF0.7022873356851222
aa(lp10
F0.6254197785883774
aF-0.07038284860735308
aF-0.05817428967099117
aF-0.04281360790842097
aF-0.7069555342930333
aF-0.04057253289644019
aF0.7047941097119664
aa(lp11
F0.6137778067294463
aF-0.13785420875122503
aF-0.05871304345351664
aF-0.06458539302858311
aF-0.7114007685824232
aF-0.06449908550330404
aF0.6968339410770105
aa(lp12
F0.6007901555226173
aF-0.20784457535655396
aF-0.06013808735174884
aF-0.5661757700227387
aF-0.45199242917357785
aF0.444358666199389
aF0.5269660493641192
aa(lp13
F0.6120864476686643
aF-0.1391603256081356
aF0.009741223369794171
aF-0.05666721783300362
aF-0.7126267261794474
aF-0.09120494920640342
aF0.6932774572983655
aa(lp14
F0.5971605247921414
aF-0.20846218783178433
aF0.01044712599185826
aF-0.07496266351717637
aF-0.7229502998438423
aF-0.06847398291489899
aF0.6833994269077779
aa(lp15
F0.6093827427169423
aF-0.14008412208454094
aF0.07960473189567356
aF-0.09208653103555757
aF-0.7148888469179945
aF-0.09128794800647257
aF0.687110266189398
aa(lp16
F0.5934444761570589
aF-0.20898443361123392
aF0.08015479671734363
aF-0.055221378919426856
aF-0.7250101248696937
aF-0.08036023480072875
aF0.6818014012961837
aasS'id'
p17
(lp18
I3
aI0
aI6
aI7
aI8
aI4
aI5
aI1
aI2
asS'conf'
p19
(lp20
I1
aI1
aI1
aI1
aI1
aI1
aI1
aI1
aI1
as.(dp0
S'viz'
p1
(lp2
I01
aI01
aI01
aI01
aI01
aI01
aI01
aI01
aI01
asS'frame'
p3
(lp4
S'torso_lift_link'
p5
ag5
ag5
ag5
ag5
ag5
ag5
ag5
ag5
asS'pose'
p6
(lp7
(lp8
F0.6084691668734138
aF-0.08483781699597086
aF-0.00829109983277252
aF-0.08788526413703629
aF-0.7001262628882509
aF-0.046095017254478565
aF0.7070888527943321
aa(lp9
F0.5953704000991068
aF-0.15315004982698097
aF-0.005326055699562591
aF-0.083992671932537
aF-0.7145913788075452
aF-0.08247030968744115
aF0.6895672849081681
aa(lp10
F0.5794197843398576
aF-0.22265359255266765
aF-0.0026420342368014983
aF-0.10282803451667352
aF-0.7162974712776704
aF-0.06414366591354193
aF0.6871898704738194
aa(lp11
F0.6083704005053014
aF-0.08301013930712203
aF0.060291691142835876
aF-0.06970680898043033
aF-0.7025193927957338
aF-0.06290782634021873
aF0.7054431719939092
aa(lp12
F0.5945555854726721
aF-0.15090950847039974
aF0.06384502493856879
aF-0.10981456663920314
aF-0.7085470063614786
aF-0.07338259809185421
aF0.6931932595079963
aa(lp13
F0.576271633307139
aF-0.21958112856488152
aF0.06716821163340864
aF-0.09658486291701424
aF-0.7217001613471247
aF-0.057642287883128904
aF0.6830063015920381
aa(lp14
F0.6092099091153086
aF-0.0811527137495116
aF0.12979850301772003
aF-0.07016951832864492
aF-0.6999845933431303
aF-0.06705827513849526
aF0.7075316215655865
aa(lp15
F0.5920494103137358
aF-0.14909218879025646
aF0.13317280179924448
aF-0.11480352370647011
aF-0.7153563376707234
aF-0.10560116223035061
aF0.6811269012706129
aa(lp16
F0.5733333612665718
aF-0.21727394480028256
aF0.13666303087899728
aF-0.09233901186076013
aF-0.7205339070213712
aF-0.05205139676420556
aF0.6852700546616579
aasS'id'
p17
(lp18
I6
aI7
aI8
aI3
aI4
aI5
aI0
aI1
aI2
asS'conf'
p19
(lp20
I1
aI1
aI1
aI1
aI1
aI1
aI1
aI1
aI1
as.(dp0
S'viz'
p1
(lp2
I01
aI01
aI01
aI01
aI01
aI01
aI01
aI01
aI01
asS'frame'
p3
(lp4
S'torso_lift_link'
p5
ag5
ag5
ag5
ag5
ag5
ag5
ag5
ag5
asS'pose'
p6
(lp7
(lp8
F0.5964304050312766
aF-0.0899533497664746
aF0.02420277436207875
aF-0.08917826509907327
aF-0.6935554393059721
aF-0.044820608116496324
aF0.7134558169438994
aa(lp9
F0.5822963221573535
aF-0.15776708687161206
aF0.028779355205457647
aF-0.10013420380672534
aF-0.7066793911192581
aF-0.0644518836632105
aF0.6974405595372065
aa(lp10
F0.5657901506365082
aF-0.227129100759824
aF0.0331542057755554
aF-0.08776456774372188
aF-0.7182635890685567
aF-0.05163968302499517
aF0.6882791151881561
aa(lp11
F0.5981728706830813
aF-0.08670215586453295
aF0.09260383919801254
aF-0.0891002078596386
aF-0.6984300225419121
aF-0.05002537145197751
aF0.7083460445167777
aa(lp12
F0.5820123722523819
aF-0.15467167233611318
aF0.0977388068481729
aF-0.10071155010732692
aF-0.7070920249860193
aF-0.10132041157347078
aF0.6925404147591191
aa(lp13
F0.5630494054452873
aF-0.22273338220001723
aF0.10280848441668511
aF-0.088808268605573
aF-0.7191228518092253
aF-0.05245938914672853
aF0.6871851482121829
aa(lp14
F0.599604970879025
aF-0.08365691165313295
aF0.16244596040543227
aF-0.07782003357479082
aF-0.7040173925330501
aF-0.0732575959970865
aF0.7020946360812846
aa(lp15
F0.5805432318169393
aF-0.15127128327702283
aF0.1675986930911925
aF-0.13254960959535061
aF-0.7054419247799276
aF-0.09761097527522224
aF0.689386966271289
aa(lp16
F0.561185211311152
aF-0.2190761094475969
aF0.17227958823427753
aF-0.09654059144146106
aF-0.7117558272865906
aF-0.057900091303462305
aF0.6933477741759647
aasS'id'
p17
(lp18
I6
aI7
aI8
aI3
aI4
aI5
aI0
aI1
aI2
asS'conf'
p19
(lp20
I1
aI1
aI1
aI1
aI1
aI1
aI1
aI1
aI1
as.(dp0
S'viz'
p1
(lp2
I01
aI01
aI01
aI01
aI01
aI01
aI01
aI01
aI00
asS'frame'
p3
(lp4
S'torso_lift_link'
p5
ag5
ag5
ag5
ag5
ag5
ag5
ag5
ag5
asS'pose'
p6
(lp7
(lp8
F0.5773333598066259
aF-0.09627807652692723
aF0.07331765323509418
aF-0.12817336251915654
aF-0.6773627962121872
aF-0.06420750546252572
aF0.7215459983191784
aa(lp9
F0.5571605165799459
aF-0.1627166700951846
aF0.08282599027877986
aF-0.13944973620552129
aF-0.6934982152646572
aF-0.07610609286307767
aF0.7027245969268917
aa(lp10
F0.5353827410274081
aF-0.22987719167161857
aF0.09190970622463004
aF-0.14317251153173935
aF-0.6972260099412503
aF-0.08282072030471244
aF0.6975086030231499
aa(lp11
F0.5814197806664455
aF-0.09042538915887278
aF0.1432502740695154
aF-0.12736169584366291
aF-0.686513576117006
aF-0.09054330974943962
aF0.7101267614295939
aa(lp12
F0.5593457023302714
aF-0.15640836698405525
aF0.1522030559954821
aF-0.15082362759095902
aF-0.6873324443771363
aF-0.08634397812913755
aF0.7052453911282864
aa(lp13
F0.5368889187589104
aF-0.2229362375942276
aF0.1616060538792317
aF-0.13822829129945186
aF-0.6942784863236503
aF-0.07917898076023049
aF0.7018554067030799
aa(lp14
F0.5848607888704613
aF-0.08376381336888167
aF0.2128421603878843
aF-0.11540306250376436
aF-0.6895241374124419
aF-0.08405984113579296
aF0.7100510828092621
aa(lp15
F0.5927640458948354
aF-0.15691268690823357
aF0.23444239684061585
aF-0.3482132139673906
aF0.6049116979996096
aF0.5812194414585691
aF-0.4183459765700135
aa(lp16
F0.0
aF0.0
aF0.0
aF0.0
aF0.0
aF0.0
aF0.0
aasS'id'
p17
(lp18
I6
aI7
aI8
aI3
aI4
aI5
aI0
aI1
aI2
asS'conf'
p19
(lp20
I1
aI1
aI1
aI1
aI1
aI1
aI1
aI1
aI1
as.(dp0
S'viz'
p1
(lp2
I01
aI01
aI01
aI01
aI01
aI01
aI01
aI01
aI00
asS'frame'
p3
(lp4
S'torso_lift_link'
p5
ag5
ag5
ag5
ag5
ag5
ag5
ag5
ag5
asS'pose'
p6
(lp7
(lp8
F0.5709876786043615
aF-0.0881767002244789
aF0.06908517795396453
aF-0.18540656281974024
aF-0.6438631855668344
aF-0.10053306493132329
aF0.7354982716435249
aa(lp9
F0.5451750248670578
aF-0.15114229498431075
aF0.07890864778310074
aF-0.17231135020962748
aF-0.668408045042616
aF-0.11274050015058044
aF0.7147230677241643
aa(lp10
F0.5177160736955242
aF-0.21593032383624408
aF0.08880998819698534
aF-0.16525352304684918
aF-0.6660500291123118
aF-0.11473226757951627
aF0.7182653678245633
aa(lp11
F0.5790125280618668
aF-0.08440742087550449
aF0.139572662767023
aF-0.1731382301720114
aF-0.6565818157694568
aF-0.12691202696188159
aF0.723060723498527
aa(lp12
F0.5512839769139702
aF-0.14757559910232626
aF0.1490848787404874
aF-0.16258353767395778
aF-0.6646789628169056
aF-0.13546211171036007
aF0.7165322644215216
aa(lp13
F0.5236666864818997
aF-0.21164961869333984
aF0.1588727324097246
aF-0.1547152297036868
aF-0.6644293442816405
aF-0.13337855489237238
aF0.7188929024896735
aa(lp14
F0.5854321254624261
aF-0.07959457157570625
aF0.2104802955815823
aF-0.16632674086707908
aF-0.6706485455319382
aF-0.10346803936914344
aF0.7154441337222193
aa(lp15
F0.5582363887266679
aF-0.14267694286324747
aF0.21138344190337452
aF-0.1750741256562261
aF-0.6644871356789347
aF-0.137912001530612
aF0.713292490411005
aa(lp16
F0.0
aF0.0
aF0.0
aF0.0
aF0.0
aF0.0
aF0.0
aasS'id'
p17
(lp18
I6
aI7
aI8
aI3
aI4
aI5
aI0
aI1
aI2
asS'conf'
p19
(lp20
I1
aI1
aI1
aI1
aI1
aI1
aI1
aI1
aI1
as.(dp0
S'viz'
p1
(lp2
I01
aI01
aI01
aI01
aI01
aI01
aI01
aI01
aI01
asS'frame'
p3
(lp4
S'torso_lift_link'
p5
ag5
ag5
ag5
ag5
ag5
ag5
ag5
ag5
asS'pose'
p6
(lp7
(lp8
F0.5839382976661494
aF-0.07578842205765794
aF0.02808880846786475
aF-0.17565301436744263
aF-0.644225482016915
aF-0.16935429393028856
aF0.7248714851551811
aa(lp9
F0.5523950906447422
aF-0.13592238330546708
aF0.03482657480111105
aF-0.17263406614846755
aF-0.6564219631921216
aF-0.17661070925691916
aF0.7128227990320002
aa(lp10
F0.5210000254489757
aF-0.19772362094602455
aF0.04089654595763607
aF-0.182223003950258
aF-0.659218766514712
aF-0.1673433596805909
aF0.7100856248910958
aa(lp11
F0.5915555843600521
aF-0.07621782838286428
aF0.09817813695580883
aF-0.17202791398337317
aF-0.6464190371699441
aF-0.15492781803641203
aF0.7270118268592939
aa(lp12
F0.5594691590026573
aF-0.1365849936082038
aF0.10467769030803527
aF-0.17611319557354385
aF-0.651802432757729
aF-0.1924108346660097
aF0.7121206370406002
aa(lp13
F0.5264197764573274
aF-0.1978080297693793
aF0.11158286448982038
aF-0.16104393912589018
aF-0.6669955582649274
aF-0.17073398526490527
aF0.707129182823929
aa(lp14
F0.5979753386827162
aF-0.07438791597974875
aF0.1700462185674245
aF-0.16344617826098634
aF-0.6755002718088297
aF-0.13714157600195334
aF0.7058164901231592
aa(lp15
F0.5654444701877641
aF-0.1371337048617409
aF0.1756021155987258
aF-0.20662723554508694
aF-0.6470813625024183
aF-0.17330299378940717
aF0.7131318028083152
aa(lp16
F0.532654345035553
aF-0.19782689997443434
aF0.18246154174392618
aF-0.1606451302529844
aF-0.6576565543612243
aF-0.15915024580383702
aF0.7185765080298003
aasS'id'
p17
(lp18
I6
aI7
aI8
aI3
aI4
aI5
aI0
aI1
aI2
asS'conf'
p19
(lp20
I1
aI1
aI1
aI1
aI1
aI1
aI1
aI1
aI1
as.(dp0
S'viz'
p1
(lp2
I01
aI01
aI01
aI01
aI01
aI01
aI01
aI01
aI01
asS'frame'
p3
(lp4
S'torso_lift_link'
p5
ag5
ag5
ag5
ag5
ag5
ag5
ag5
ag5
asS'pose'
p6
(lp7
(lp8
F0.5983086721396741
aF-0.06850985522255472
aF-0.029094851983963943
aF-0.12680712452116225
aF-0.6725916473720078
aF-0.1169357011911692
aF0.7196293982620586
aa(lp9
F0.5727901488174627
aF-0.1316698250763209
aF-0.026227091519552857
aF-0.12923641661708107
aF-0.6875598962179787
aF-0.13858349791635788
aF0.7009664413065474
aa(lp10
F0.5468395352363586
aF-0.1966211508085697
aF-0.02390196500489775
aF-0.14502276282862267
aF-0.6801434066730278
aF-0.1457497606710557
aF0.703654994926556
aa(lp11
F0.6010247240831823
aF-0.06870646903084371
aF0.0403393912876463
aF-0.12876407592263686
aF-0.678272013740254
aF-0.11706118061028616
aF0.7139072545664852
aa(lp12
F0.5753210135448126
aF-0.13206581534058948
aF0.04333464148235922
aF-0.14164256650838913
aF-0.6746694842915958
aF-0.1412023862075368
aF0.7105071121726552
aa(lp13
F0.5480864467444243
aF-0.19654248058795917
aF0.04688906848982541
aF-0.13694060594034152
aF-0.690251000235157
aF-0.1382618621010961
aF0.6969106718994875
aa(lp14
F0.6046875275671482
aF-0.06841830008197562
aF0.1109807807952167
aF-0.12185535778406714
aF-0.6794347926790343
aF-0.11904118412583586
aF0.7136867875745169
aa(lp15
F0.5778395349596753
aF-0.13296465117622291
aF0.1140529528996092
aF-0.17586183962194527
aF-0.677592004009448
aF-0.14140844824128537
aF0.699960956220586
aa(lp16
F0.5489506500738638
aF-0.19638200998306263
aF0.11748683967708082
aF-0.1308113996505877
aF-0.6917611378950299
aF-0.13867813981352994
aF0.6965079176559924
aasS'id'
p17
(lp18
I6
aI7
aI8
aI3
aI4
aI5
aI0
aI1
aI2
asS'conf'
p19
(lp20
I1
aI1
aI1
aI1
aI1
aI1
aI1
aI1
aI1
as.(dp0
S'viz'
p1
(lp2
I01
aI01
aI01
aI01
aI01
aI01
aI01
aI01
aI01
asS'frame'
p3
(lp4
S'torso_lift_link'
p5
ag5
ag5
ag5
ag5
ag5
ag5
ag5
ag5
asS'pose'
p6
(lp7
(lp8
F0.5615432313930842
aF-0.19563188626442413
aF-0.06829360849511464
aF-0.09735612653748596
aF-0.6795557125131678
aF-0.10311965709699394
aF0.7197861866808338
aa(lp9
F0.5794938559885379
aF-0.12821897203907542
aF-0.06891157418305478
aF-0.09120407694885016
aF-0.6808256502699522
aF-0.09306433791113695
aF0.7207615967097349
aa(lp10
F0.5971481807437944
aF-0.062211772065931495
aF-0.06976617766935135
aF-0.08864591535830876
aF-0.6698562533475098
aF-0.07810942361506486
aF0.733030299158259
aa(lp11
F0.6023000299930572
aF-0.06365043087862418
aF-0.0012975952406121477
aF-0.09114102493556475
aF-0.675316397691539
aF-0.08514360555647572
aF0.7269055255089628
aa(lp12
F0.584271631858967
aF-0.1295378314124212
aF0.0002493591731944395
aF-0.09153194655670932
aF-0.67485956332723
aF-0.09506203161659588
aF0.7260507438810634
aa(lp13
F0.565148174026866
aF-0.19696425574797158
aF0.0020822458929257042
aF-0.08731574494838525
aF-0.6846602876468664
aF-0.0928593344957112
aF0.7176304029237004
aa(lp14
F0.6071111412695896
aF-0.0651681392787046
aF0.06760075706758631
aF-0.09601046686902621
aF-0.6712459481485237
aF-0.08401860817506795
aF0.7301724048648414
aa(lp15
F0.588469163135246
aF-0.1312893901526191
aF0.06992919922426907
aF-0.10392521166533024
aF-0.6765551167992548
aF-0.10622148057100117
aF0.7212417912034543
aa(lp16
F0.5679506416674014
aF-0.19811382606441577
aF0.07222991648279603
aF-0.07267096975657805
aF-0.688699841855492
aF-0.10864320716757664
aF0.7131676601748019
aasS'id'
p17
(lp18
I8
aI7
aI6
aI3
aI4
aI5
aI0
aI1
aI2
asS'conf'
p19
(lp20
I1
aI1
aI1
aI1
aI1
aI1
aI1
aI1
aI1
as.(dp0
S'viz'
p1
(lp2
I01
aI01
aI01
aI01
aI01
aI01
aI01
aI01
aI01
asS'frame'
p3
(lp4
S'torso_lift_link'
p5
ag5
ag5
ag5
ag5
ag5
ag5
ag5
ag5
asS'pose'
p6
(lp7
(lp8
F0.5637284186151293
aF-0.188128806301105
aF-0.0902720809350778
aF-0.08271606287360651
aF-0.668834929790005
aF-0.12185139808568532
aF0.7286769698707738
aa(lp9
F0.5837037313131639
aF-0.12152350971728182
aF-0.08973018871045395
aF-0.086871337130212
aF-0.6730708441438716
aF-0.11833752317125076
aF0.7248622215003062
aa(lp10
F0.6030000293696368
aF-0.056203823267585565
aF-0.08915235148167891
aF-0.08061388698591081
aF-0.6701642496563662
aF-0.10985586544997555
aF0.7295978128625247
aa(lp11
F0.6089876875465299
aF-0.05991828571085195
aF-0.02077335819607748
aF-0.07905681031345067
aF-0.6691125719884186
aF-0.1237093317688417
aF0.7285151940648963
aa(lp12
F0.5891605210892948
aF-0.1246801005101497
aF-0.020775310064228926
aF-0.07675809391577075
aF-0.6708449478925776
aF-0.11509341714154629
aF0.7285799587115367
aa(lp13
F0.5684568146128713
aF-0.19113387399249593
aF-0.020609066575868966
aF-0.07957161049000547
aF-0.6761432910320024
aF-0.11828422859091843
aF0.7228467680380755
aa(lp14
F0.6138024977695795
aF-0.0628969572714448
aF0.04722796336828204
aF-0.0782601290001626
aF-0.6730697563545487
aF-0.11433023640903953
aF0.7264854109563103
aa(lp15
F0.5939753357275033
aF-0.12816821399294287
aF0.048329973777319304
aF-0.10557834843769727
aF-0.6678637688925981
aF-0.10566781500668485
aF0.7291402549670781
aa(lp16
F0.5724815093440774
aF-0.19428376165437095
aF0.049199427236561545
aF-0.08458553750682667
aF-0.6790269600688905
aF-0.12353997485483431
aF0.7186832048664762
aasS'id'
p17
(lp18
I8
aI7
aI6
aI3
aI4
aI5
aI0
aI1
aI2
asS'conf'
p19
(lp20
I1
aI1
aI1
aI1
aI1
aI1
aI1
aI1
aI1
as.(dp0
S'viz'
p1
(lp2
I01
aI01
aI01
aI01
aI01
aI01
aI01
aI01
aI01
asS'frame'
p3
(lp4
S'torso_lift_link'
p5
ag5
ag5
ag5
ag5
ag5
ag5
ag5
ag5
asS'pose'
p6
(lp7
(lp8
F0.5637654581187685
aF-0.18324700616024145
aF-0.10191366977897678
aF-0.1114368665259206
aF-0.6502836736784686
aF-0.11926128747608791
aF0.7419499402491145
aa(lp9
F0.5864815101211454
aF-0.1176571848031914
aF-0.10066818979419295
aF-0.09745207932057562
aF-0.6616527795443744
aF-0.1311730486372339
aF0.7317870748165164
aa(lp10
F0.6084444787767198
aF-0.05342457560868345
aF-0.09958754305118381
aF-0.07385918334567314
aF-0.6569762382534651
aF-0.15771683701486613
aF0.7335205809845166
aa(lp11
F0.6148518809565792
aF-0.05773203039978743
aF-0.03203973179844045
aF-0.09406376737820316
aF-0.6591642052938376
aF-0.13297606411911972
aF0.734147072797645
aa(lp12
F0.5932839792451741
aF-0.12193075311772604
aF-0.032393582337708254
aF-0.5384987012295592
aF-0.3935275325844418
aF0.45428675939490215
aF0.5905749487665028
aa(lp13
F0.5709012584921754
aF-0.1877148018207078
aF-0.03273496986079351
aF-0.10665238269545958
aF-0.6542974189912226
aF-0.11472934878146883
aF0.7398360178411064
aa(lp14
F0.6210247189910324
aF-0.06208191888613819
aF0.0359457166589522
aF-0.08327669630550136
aF-0.6665792970929051
aF-0.12875861643985764
aF0.7294917759865862
aa(lp15
F0.5990617584299158
aF-0.12664158156624533
aF0.035997439175844324
aF-0.09879721932490387
aF-0.6659661622544578
aF-0.12194706697840062
aF0.7292853303345004
aa(lp16
F0.5770370651174475
aF-0.19223434295919195
aF0.03652124869188789
aF-0.0919822426380356
aF-0.6641704684452829
aF-0.13115053968713047
aF0.7302166745728458
aasS'id'
p17
(lp18
I8
aI7
aI6
aI3
aI4
aI5
aI0
aI1
aI2
asS'conf'
p19
(lp20
I1
aI1
aI1
aI1
aI1
aI1
aI1
aI1
aI1
as.(dp0
S'viz'
p1
(lp2
I01
aI01
aI01
aI01
aI01
aI01
aI01
aI01
aI01
asS'frame'
p3
(lp4
S'torso_lift_link'
p5
ag5
ag5
ag5
ag5
ag5
ag5
ag5
ag5
asS'pose'
p6
(lp7
(lp8
F0.6321111387676663
aF-0.046888220079105064
aF-0.1212697898348171
aF-0.07285790252731822
aF-0.6539533085604273
aF-0.1407661905760864
aF0.7397443314097696
aa(lp9
F0.5899259521637435
aF-0.17738535937703673
aF-0.12933402370523508
aF-0.0813997901551351
aF-0.6586700952841736
aF-0.12249600211805309
aF0.7379176845733754
aa(lp10
F0.6108024996003987
aF-0.11155677229901875
aF-0.12488246571134624
aF-0.09793724854640415
aF-0.6594418354995258
aF-0.12711801366834533
aF0.7344288743923337
aa(lp11
F0.5967531152713446
aF-0.18446741788475587
aF-0.060725259790081906
aF-0.06636597575768323
aF-0.6584710039041326
aF-0.11069061088691673
aF0.7414574046704876
aa(lp12
F0.6178765664865942
aF-0.11853326914119117
aF-0.057402966659010055
aF-0.07478308063685925
aF-0.6568043719609796
aF-0.12269532150498802
aF0.7402441258829358
aa(lp13
F0.63834571470449
aF-0.05404987839384013
aF-0.05387527670389326
aF-0.08410241506034849
aF-0.6573712344250268
aF-0.1439218753396451
aF0.7348988622458557
aa(lp14
F0.6452222547413391
aF-0.06063872047550502
aF0.013034509927505933
aF-0.06499826224507976
aF-0.6557978826180673
aF-0.14002745730947602
aF0.7389835412634185
aa(lp15
F0.6033333620907347
aF-0.19125583815721803
aF0.007674803549889609
aF-0.04347797828706578
aF-0.6660720701832328
aF-0.12438091185853188
aF0.7341573751527203
aa(lp16
F0.6241605208243852
aF-0.12530715517055827
aF0.0102699007573079
aF-0.5256410394749852
aF-0.4080879571753067
aF0.42871356351881446
aF0.6110404219715269
aasS'id'
p17
(lp18
I6
aI8
aI7
aI5
aI4
aI3
aI0
aI2
aI1
asS'conf'
p19
(lp20
I1
aI1
aI1
aI1
aI1
aI1
aI1
aI1
aI1
as.(dp0
S'viz'
p1
(lp2
I01
aI01
aI01
aI01
aI01
aI01
aI01
aI01
aI01
asS'frame'
p3
(lp4
S'torso_lift_link'
p5
ag5
ag5
ag5
ag5
ag5
ag5
ag5
ag5
asS'pose'
p6
(lp7
(lp8
F0.6472099092271593
aF-0.04317587405848475
aF-0.12001846767502052
aF-0.05509994372820853
aF-0.6776112705395922
aF-0.13699494039085547
aF0.720443855235211
aa(lp9
F0.6112592904656022
aF-0.17528826303688083
aF-0.1330613134267888
aF-0.06303804749007785
aF-0.6861692043175954
aF-0.10313212513252785
aF0.7173296260300738
aa(lp10
F0.628362525999546
aF-0.10827565970830605
aF-0.12636999646201716
aF-0.058008209504558185
aF-0.6859359890647071
aF-0.12967230521232975
aF0.7136609557743914
aa(lp11
F0.6129259570145312
aF-0.18270948613867333
aF-0.06392337883144235
aF-0.03826852605172854
aF-0.6852199409820721
aF-0.11390533193110736
aF0.7183555719502829
aa(lp12
F0.6318518784311082
aF-0.11620894205055105
aF-0.058283272670742764
aF-0.061426453510195975
aF-0.6725932458052271
aF-0.13959812422426188
aF0.7241253207970405
aa(lp13
F0.6507037318783042
aF-0.05147056026717656
aF-0.052760132599943804
aF-0.07380008760187892
aF-0.6762476695392936
aF-0.1313336502738893
aF0.7211061702817174
aa(lp14
F0.6552592935385527
aF-0.059274452342939085
aF0.014121106171831174
aF-0.057806790557956914
aF-0.6677344073264847
aF-0.13108509933839696
aF0.730483287262056
aa(lp15
F0.6157284239192068
aF-0.19040269112145444
aF0.0046409879621395625
aF-0.030987350113225818
aF-0.688233230894341
aF-0.1068584046474163
aF0.7169073059900466
aa(lp16
F0.6348642272713744
aF-0.12409696131944642
aF0.009433980564799669
aF-0.5199781120569944
aF-0.4378298240996382
aF0.41478504592190363
aF0.6048811236847188
aasS'id'
p17
(lp18
I6
aI8
aI7
aI5
aI4
aI3
aI0
aI2
aI1
asS'conf'
p19
(lp20
I1
aI1
aI1
aI1
aI1
aI1
aI1
aI1
aI1
as.(dp0
S'viz'
p1
(lp2
I01
aI01
aI01
aI01
aI01
aI01
aI01
aI01
aI00
asS'frame'
p3
(lp4
S'torso_lift_link'
p5
ag5
ag5
ag5
ag5
ag5
ag5
ag5
ag5
asS'pose'
p6
(lp7
(lp8
F0.6670370609671982
aF-0.07922775180619425
aF-0.08904623746136074
aF-0.10129709546125441
aF-0.6938123854978787
aF-0.06250680985737098
aF0.710250780289829
aa(lp9
F0.6470494115794146
aF-0.14499334137380845
aF-0.08519658450911062
aF-0.12791509068491347
aF-0.6947913390550788
aF-0.08649719550868337
aF0.7024392926924388
aa(lp10
F0.669209901197457
aF-0.07632089661043352
aF-0.02105949585179404
aF-0.10537014525922245
aF-0.6934658920157772
aF-0.05559198184120201
aF0.7105714043315988
aa(lp11
F0.6490987929297082
aF-0.14201210625009758
aF-0.017069713068108307
aF-0.10960241588906133
aF-0.6911373651424617
aF-0.11188765792997182
aF0.7055477339898147
aa(lp12
F0.625975329198955
aF-0.20825494376965498
aF-0.013174651173391689
aF-0.11423946904759412
aF-0.701276528308922
aF-0.11313904813281955
aF0.6945215117923341
aa(lp13
F0.6709382938749997
aF-0.07426126167454086
aF0.046788480546739515
aF-0.09781145308210491
aF-0.6978875252313476
aF-0.05805157872291185
aF0.7071180495364333
aa(lp14
F0.6500000247248897
aF-0.13938121858202368
aF0.051434336437119525
aF-0.1312414969464621
aF-0.6925331183395614
aF-0.11969965350629151
aF0.6991749011746694
aa(lp15
F0.6261605156792535
aF-0.20495541533570213
aF0.05594604733733497
aF-0.10982920922694278
aF-0.7042836938831845
aF-0.11335124778957349
aF0.6921513692505336
aa(lp16
F0.0
aF0.0
aF0.0
aF0.0
aF0.0
aF0.0
aF0.0
aasS'id'
p17
(lp18
I6
aI7
aI3
aI4
aI5
aI0
aI1
aI2
aI8
asS'conf'
p19
(lp20
I1
aI1
aI1
aI1
aI1
aI1
aI1
aI1
aI1
as.(dp0
S'viz'
p1
(lp2
I01
aI01
aI01
aI01
aI01
aI01
aI01
aI01
aI01
asS'frame'
p3
(lp4
S'torso_lift_link'
p5
ag5
ag5
ag5
ag5
ag5
ag5
ag5
ag5
asS'pose'
p6
(lp7
(lp8
F0.6689753319010322
aF-0.0904337140789001
aF-0.06262059183216374
aF-0.1117225555708441
aF-0.684414729177173
aF-0.07555147670780965
aF0.7165099604536742
aa(lp9
F0.6494691600034266
aF-0.15618673474700348
aF-0.05620497736481958
aF-0.13751929852664124
aF-0.6880499051857736
aF-0.08616190779203015
aF0.7072848762360373
aa(lp10
F0.6286049602944174
aF-0.22314833704336176
aF-0.049739556732000985
aF-0.1583133067258908
aF-0.680399630356465
aF-0.08655432512086908
aF0.7102827526606365
aa(lp11
F0.6722592880696426
aF-0.0859351130271398
aF0.004828301305813795
aF-0.11845761480840532
aF-0.6751915754095972
aF-0.06654226911345677
aF0.7250215558250955
aa(lp12
F0.6534197771990741
aF-0.15150149021251688
aF0.011720200625455358
aF-0.15027377090267235
aF-0.6811240632704089
aF-0.07555737946910729
aF0.7125860555894009
aa(lp13
F0.6315432345425641
aF-0.21808065981776611
aF0.01900135340200705
aF-0.15393384119761358
aF-0.6860392235728684
aF-0.0824378298903595
aF0.7062992003794512
aa(lp14
F0.6760617524017521
aF-0.08109581748276566
aF0.07249619531226763
aF-0.0969908566728401
aF-0.6847435824651344
aF-0.051191603344392246
aF0.7204848504595448
aa(lp15
F0.6563580492396413
aF-0.1470928118736654
aF0.08012646045765774
aF-0.1420129899497004
aF-0.6837617622424411
aF-0.10335639685550914
aF0.708251098417577
aa(lp16
F0.633506198724111
aF-0.2131206714444689
aF0.08755591410545668
aF-0.1281472951900443
aF-0.6898268906465619
aF-0.09298597918416118
aF0.7064493890941761
aasS'id'
p17
(lp18
I6
aI7
aI8
aI3
aI4
aI5
aI0
aI1
aI2
asS'conf'
p19
(lp20
I1
aI1
aI1
aI1
aI1
aI1
aI1
aI1
aI1
as.(dp0
S'viz'
p1
(lp2
I01
aI01
aI01
aI01
aI01
aI01
aI01
aI01
aI01
asS'frame'
p3
(lp4
S'torso_lift_link'
p5
ag5
ag5
ag5
ag5
ag5
ag5
ag5
ag5
asS'pose'
p6
(lp7
(lp8
F0.6846790468251264
aF-0.09720152158428105
aF-0.01099507413793018
aF-0.1192361933391199
aF-0.7049428466796445
aF-0.07749619187746858
aF0.6948616073418404
aa(lp9
F0.6652222511209086
aF-0.1634282850740867
aF-0.00459653177344582
aF-0.12834004708302532
aF-0.7182545265027377
aF-0.0881034547180689
aF0.6781423513833923
aa(lp10
F0.6437160784815564
aF-0.2304597319644173
aF0.0020864081869397685
aF-0.16385375116652226
aF-0.7124564466559488
aF-0.0830409963259353
aF0.6772458584415519
aa(lp11
F0.6840741045681047
aF-0.09207120935122157
aF0.057142084809365244
aF-0.12215969497724173
aF-0.6969061595410484
aF-0.07080081726366563
aF0.7031259190156561
aa(lp12
F0.6644815096148738
aF-0.15781462323150502
aF0.0643747130201924
aF-0.13977783340926642
aF-0.6974914679491637
aF-0.0929070064215631
aF0.6966606760707224
aa(lp13
F0.6411234832104341
aF-0.22425606177176946
aF0.07147068052012258
aF-0.13733654306310633
aF-0.7179525632912458
aF-0.09562545156274244
aF0.6756763750616318
aa(lp14
F0.6856296629081539
aF-0.0866166766410991
aF0.12634157196239204
aF-0.13433146911189559
aF-0.6953636998695839
aF-0.04507995045101336
aF0.7045510480988991
aa(lp15
F0.6635432375801933
aF-0.1526198452637518
aF0.13381081442406162
aF-0.14674661672466027
aF-0.7094593217883105
aF-0.1162069237437721
aF0.6794327428683029
aa(lp16
F0.6393086718924251
aF-0.21836739642384598
aF0.1412974576707241
aF-0.12674329748242483
aF-0.7142102278056512
aF-0.08512393721331475
aF0.6830767177663026
aasS'id'
p17
(lp18
I6
aI7
aI8
aI3
aI4
aI5
aI0
aI1
aI2
asS'conf'
p19
(lp20
I1
aI1
aI1
aI1
aI1
aI1
aI1
aI1
aI1
as.(dp0
S'viz'
p1
(lp2
I01
aI01
aI01
aI01
aI01
aI01
aI01
aI01
aI01
asS'frame'
p3
(lp4
S'torso_lift_link'
p5
ag5
ag5
ag5
ag5
ag5
ag5
ag5
ag5
asS'pose'
p6
(lp7
(lp8
F0.6836543546782601
aF-0.10126340354298352
aF0.038239743710024275
aF-0.12526536284988551
aF-0.7102186326766211
aF-0.09013730501361243
aF0.6868575899805728
aa(lp9
F0.6617160770628188
aF-0.16708834553942253
aF0.04526684578094232
aF-0.16377699030322257
aF-0.7233628925369844
aF-0.08386719050255872
aF0.665499449665402
aa(lp10
F0.6378642269122747
aF-0.23389472170376469
aF0.052187716749347426
aF-0.14814948564721062
aF-0.7356343330963516
aF-0.10341017884630517
aF0.6528400974077252
aa(lp11
F0.6822345992665233
aF-0.09568154473363602
aF0.10764055993453969
aF-0.12728583985038938
aF-0.7074886337402799
aF-0.08669281242032117
aF0.6897408965521389
aa(lp12
F0.6590123728469566
aF-0.16114260800826682
aF0.1151448163537333
aF-0.1847433714132621
aF-0.7088761121262296
aF-0.10399355980152439
aF0.6727182797393493
aa(lp13
F0.6321728648962798
aF-0.2265164634327828
aF0.12234074806357621
aF-0.16539363803603602
aF-0.7206002927203778
aF-0.08704374680706854
aF0.6676852168277337
aa(lp14
F0.6806173155337204
aF-0.08978700027973548
aF0.1783742625036359
aF-0.1376000648057212
aF-0.7132349630868876
aF-0.06920814725880008
aF0.6837926161848427
aa(lp15
F0.6550000280509761
aF-0.15485003712000656
aF0.1856887014927689
aF-0.17273842645281062
aF-0.712009792668637
aF-0.13584589134157918
aF0.6668953328493036
aa(lp16
F0.6281481686933541
aF-0.21987062979627522
aF0.19268382202695933
aF-0.1474021518671898
aF-0.7196095479975966
aF-0.10516916069307193
aF0.6703537511603346
aasS'id'
p17
(lp18
I6
aI7
aI8
aI3
aI4
aI5
aI0
aI1
aI2
asS'conf'
p19
(lp20
I1
aI1
aI1
aI1
aI1
aI1
aI1
aI1
aI1
as.(dp0
S'viz'
p1
(lp2
I01
aI01
aI01
aI01
aI01
aI01
aI01
aI01
aI01
asS'frame'
p3
(lp4
S'torso_lift_link'
p5
ag5
ag5
ag5
ag5
ag5
ag5
ag5
ag5
asS'pose'
p6
(lp7
(lp8
F0.6629753355626707
aF-0.09515719453309773
aF0.04663524125921152
aF-0.13850810936808788
aF-0.690680122089425
aF-0.09558877450688466
aF0.7033059496251165
aa(lp9
F0.6394444733490179
aF-0.15974997905669375
aF0.05366442456013641
aF-0.15294084157605878
aF-0.7065608148968419
aF-0.1076457216842273
aF0.6824905218634173
aa(lp10
F0.6141111372429647
aF-0.2256930776952224
aF0.060985929850075116
aF-0.15321011118972383
aF-0.7165694321893625
aF-0.11624813842140921
aF0.6704783971125422
aa(lp11
F0.6111605196823309
aF-0.21983495752016685
aF0.13204826166232442
aF-0.15009840801295363
aF-0.7101899054147442
aF-0.11072280520501848
aF0.6788528754940241
aa(lp12
F0.6649506437925645
aF-0.09101951068934083
aF0.11673767956686625
aF-0.13023215174998257
aF-0.6976332201650955
aF-0.09988230019174353
aF0.6974030419212807
aa(lp13
F0.6396296554141574
aF-0.15532877997115793
aF0.12447817393659087
aF-0.18002033005206053
aF-0.6908272715167328
aF-0.136760709934499
aF0.6867655130500552
aa(lp14
F0.6665061999250341
aF-0.08644549504474343
aF0.1880596589159084
aF-0.1275332236877848
aF-0.694992180371571
aF-0.09076735126966425
aF0.7017709270279444
aa(lp15
F0.6389753384354674
aF-0.15063569301072446
aF0.19578763309084352
aF-0.18844721022824543
aF-0.6916261972147221
aF-0.14347431471067798
aF0.6823166224721446
aa(lp16
F0.6100370685259501
aF-0.21441827210379222
aF0.20312794987802166
aF-0.1746981761100038
aF-0.7007175097243271
aF-0.10502970642650311
aF0.6836989685508807
aasS'id'
p17
(lp18
I6
aI7
aI8
aI5
aI3
aI4
aI0
aI1
aI2
asS'conf'
p19
(lp20
I1
aI1
aI1
aI1
aI1
aI1
aI1
aI1
aI1
as.(dp0
S'viz'
p1
(lp2
I01
aI01
aI01
aI01
aI01
aI01
aI01
aI01
aI01
asS'frame'
p3
(lp4
S'torso_lift_link'
p5
ag5
ag5
ag5
ag5
ag5
ag5
ag5
ag5
asS'pose'
p6
(lp7
(lp8
F0.6605185483708794
aF-0.08684070980475259
aF0.007508172118967477
aF-0.17746742501186155
aF-0.6826915012875446
aF-0.14398171357686526
aF0.6940510739743058
aa(lp9
F0.630271632730225
aF-0.14804165269489628
aF0.012304903840916486
aF-0.15414287274560942
aF-0.6991249046802839
aF-0.1680832078522267
aF0.6776521066709821
aa(lp10
F0.5995555851194594
aF-0.2106119134175923
aF0.017139519018661592
aF-0.1887830696951217
aF-0.6842576305182665
aF-0.1642769769472057
aF0.6849565844045165
aa(lp11
F0.6622222492724289
aF-0.08502225050771663
aF0.0773057312601144
aF-0.16398840292117095
aF-0.6795558747445275
aF-0.14605813298053116
aF0.699984741689278
aa(lp12
F0.6312469398533856
aF-0.14629401148837276
aF0.08282531958855242
aF-0.18767019312155223
aF-0.6763227191753403
aF-0.15848352718610642
aF0.694442546040811
aa(lp13
F0.5989136129249761
aF-0.20814291831151924
aF0.08852684893357915
aF-0.18924827974843747
aF-0.6854101307066525
aF-0.1451459683784102
aF0.6879903263858006
aa(lp14
F0.6645308887517011
aF-0.08265548881925168
aF0.14862177327827186
aF-0.16309183091185123
aF-0.6855069920529892
aF-0.13088714331597057
aF0.697387821983484
aa(lp15
F0.6321975588798523
aF-0.14436967212844765
aF0.15426060962088328
aF-0.20719391753851008
aF-0.6779111814966445
aF-0.1651982135646556
aF0.6857234579419864
aa(lp16
F0.5991605247980283
aF-0.20593576861752388
aF0.16013901138011336
aF-0.1763056093958946
aF-0.6817250708510159
aF-0.13686127982987148
aF0.6967325526714315
aasS'id'
p17
(lp18
I6
aI7
aI8
aI3
aI4
aI5
aI0
aI1
aI2
asS'conf'
p19
(lp20
I1
aI1
aI1
aI1
aI1
aI1
aI1
aI1
aI1
as.(dp0
S'viz'
p1
(lp2
I01
aI01
aI01
aI01
aI01
aI01
aI01
aI01
aI01
asS'frame'
p3
(lp4
S'torso_lift_link'
p5
ag5
ag5
ag5
ag5
ag5
ag5
ag5
ag5
asS'pose'
p6
(lp7
(lp8
F0.6680000284571705
aF-0.08367894633132719
aF-0.019507138174958378
aF-0.19157081230720882
aF-0.6881165433745824
aF-0.1313050347363062
aF0.6874265302263727
aa(lp9
F0.6363210177715913
aF-0.14447843193272
aF-0.016289783581332335
aF-0.1695513812975113
aF-0.7009768317030984
aF-0.16286177314839986
aF0.6733200229924483
aa(lp10
F0.6036543470841867
aF-0.20602750034979816
aF-0.013889289558088892
aF-0.21339542112949353
aF-0.681286527830139
aF-0.1643508706546984
aF0.6806613346982198
aa(lp11
F0.6668148430777184
aF-0.08246601232224025
aF0.050690209125111275
aF-0.16719004627094705
aF-0.6925116676150482
aF-0.14095583655258126
aF0.6874638396211874
aa(lp12
F0.6349136064082016
aF-0.1437341400870569
aF0.05436717571667698
aF-0.17621150013958214
aF-0.6882888142790773
aF-0.16519590650837385
aF0.6840455597617284
aa(lp13
F0.6012716359562345
aF-0.20435381627377153
aF0.05778604713671014
aF-0.1780878530269157
aF-0.7024204512662952
aF-0.1693580375373687
aF0.667988084750476
aa(lp14
F0.6664815066773214
aF-0.08074825732612301
aF0.12166327624409302
aF-0.13893629977143213
aF-0.6937753741708071
aF-0.13876207539949947
aF0.6929051314796298
aa(lp15
F0.6337531150123219
aF-0.142131224936909
aF0.12564908510740908
aF-0.2043981280146837
aF-0.6890528113198482
aF-0.16732505312229964
aF0.6748555068115888
aa(lp16
F0.5987284264446776
aF-0.20312324471679724
aF0.12985128394247586
aF-0.18008787238002708
aF-0.6989407336439168
aF-0.148429461260769
aF0.676031733060495
aasS'id'
p17
(lp18
I6
aI7
aI8
aI3
aI4
aI5
aI0
aI1
aI2
asS'conf'
p19
(lp20
I1
aI1
aI1
aI1
aI1
aI1
aI1
aI1
aI1
as.(dp0
S'viz'
p1
(lp2
I01
aI01
aI01
aI01
aI01
aI01
aI01
aI01
aI01
asS'frame'
p3
(lp4
S'torso_lift_link'
p5
ag5
ag5
ag5
ag5
ag5
ag5
ag5
ag5
asS'pose'
p6
(lp7
(lp8
F0.623308665222592
aF-0.20650157564216176
aF-0.07569928784613242
aF-0.11986712537072684
aF-0.7307557310549713
aF-0.11067549268333259
aF0.6628565976928753
aa(lp9
F0.6464815088260321
aF-0.14042974283665774
aF-0.07534510748069949
aF-0.12951919345786408
aF-0.7246254088118168
aF-0.12483504340641909
aF0.6652510859578129
aa(lp10
F0.6701728657439903
aF-0.07523377142662604
aF-0.07472995190340781
aF-0.10850233419473794
aF-0.7091801264813995
aF-0.1053559241462032
aF0.6886152197892661
aa(lp11
F0.6663580544200944
aF-0.07556328383952732
aF-0.004944491813844497
aF-0.10488695149168087
aF-0.7179996319807909
aF-0.09946286927949421
aF0.6808688519215144
aa(lp12
F0.642098793277034
aF-0.1397871449773693
aF-0.004238659928460681
aF-0.13036908640490225
aF-0.713918724425499
aF-0.12358965388393486
aF0.6767935827691254
aa(lp13
F0.6161111372488516
aF-0.20531903494287404
aF-0.004059271228695037
aF-0.12017748627487888
aF-0.7345426149196936
aF-0.11350552149822382
aF0.6581193016839775
aa(lp14
F0.662765461721538
aF-0.07507609950355527
aF0.0650395810788062
aF-0.09801162881758249
aF-0.7179485708998525
aF-0.09979935094701341
aF0.6818971034620537
aa(lp15
F0.6366543512285492
aF-0.13904286435356833
aF0.06631931073871673
aF-0.13656207660595165
aF-0.7214952804774717
aF-0.16590448979951358
aF0.658233286719965
aa(lp16
F0.6090741061869963
aF-0.20347830829796953
aF0.06795077439811509
aF-0.12589259306189468
aF-0.7309480288564789
aF-0.11839081171425105
aF0.6601891015645603
aasS'id'
p17
(lp18
I8
aI7
aI6
aI3
aI4
aI5
aI0
aI1
aI2
asS'conf'
p19
(lp20
I1
aI1
aI1
aI1
aI1
aI1
aI1
aI1
aI1
as.(dp0
S'viz'
p1
(lp2
I01
aI01
aI01
aI01
aI01
aI01
aI01
aI01
aI01
asS'frame'
p3
(lp4
S'torso_lift_link'
p5
ag5
ag5
ag5
ag5
ag5
ag5
ag5
ag5
asS'pose'
p6
(lp7
(lp8
F0.6225679266599963
aF-0.19515756537884826
aF-0.10588195873999287
aF-0.10510810930865876
aF-0.7329935236065092
aF-0.13318195685282377
aF0.6587376914048
aa(lp9
F0.6470864466678949
aF-0.13007838428020463
aF-0.10248094732746652
aF-0.13990344248341552
aF-0.7231497837567666
aF-0.13540448385036555
aF0.6626817054869159
aa(lp10
F0.6727407618805215
aF-0.06650765690446621
aF-0.0994120468328027
aF-0.09296109601672542
aF-0.716498477524971
aF-0.135210418292073
aF0.6780164519516105
aa(lp11
F0.6145308908121085
aF-0.19586010527463593
aF-0.03467477016426885
aF-0.10788780663232465
aF-0.7293010357564402
aF-0.1374264972377916
aF0.6615090160244237
aa(lp12
F0.6416543516111962
aF-0.13155128302765468
aF-0.032206210261785544
aF-0.11274858065643271
aF-0.716478884987198
aF-0.16034181766676334
aF0.6695044932147806
aa(lp13
F0.667469162263988
aF-0.06826835079233573
aF-0.029664399378277487
aF-0.08738763891507781
aF-0.7267438539459536
aF-0.13494630561172286
aF0.6678295186036461
aa(lp14
F0.6624691626172008
aF-0.06957731045966516
aF0.039697192333362864
aF-0.09742149026277064
aF-0.7198797285691719
aF-0.12329145597718796
aF0.676077988484451
aa(lp15
F0.6352592905362447
aF-0.13283335253780257
aF0.03842688086270196
aF-0.13720918439109248
aF-0.7209152947806674
aF-0.16689348956553904
aF0.6584841232791205
aa(lp16
F0.6072716345021754
aF-0.19679341522263877
aF0.036513758880764746
aF-0.10996137961991319
aF-0.7280470101348379
aF-0.13520835835031672
aF0.6630043332120997
aasS'id'
p17
(lp18
I8
aI7
aI6
aI5
aI4
aI3
aI0
aI1
aI2
asS'conf'
p19
(lp20
I1
aI1
aI1
aI1
aI1
aI1
aI1
aI1
aI1
as.(dp0
S'viz'
p1
(lp2
I01
aI01
aI01
aI01
aI01
aI01
aI01
aI01
aI01
asS'frame'
p3
(lp4
S'torso_lift_link'
p5
ag5
ag5
ag5
ag5
ag5
ag5
ag5
ag5
asS'pose'
p6
(lp7
(lp8
F0.5977284238662249
aF-0.173811321199676
aF-0.1276429716819597
aF-0.12297080124097935
aF-0.6896681896784194
aF-0.19393358599318544
aF0.6867501251631972
aa(lp9
F0.629271630887632
aF-0.11213793635000403
aF-0.12193158866814612
aF-0.16148838168588736
aF-0.6896159102680117
aF-0.18206241465033793
aF0.6820591441051013
aa(lp10
F0.6606049692189252
aF-0.051821953733164075
aF-0.11686127706442336
aF-0.12576893586890692
aF-0.6906846019671423
aF-0.19633856957613394
aF0.6845349673118903
aa(lp11
F0.5955061986122603
aF-0.1792324155201145
aF-0.05783511229135359
aF-0.11057031162119463
aF-0.6950365011629892
aF-0.18384993088773266
aF0.6862198417064883
aa(lp12
F0.6274074367534968
aF-0.11787455024910548
aF-0.05301764030239451
aF-0.15784297417600002
aF-0.6908006268719226
aF-0.17999396791491143
aF0.682262604083559
aa(lp13
F0.658185214172175
aF-0.05768295337940425
aF-0.04820227255055919
aF-0.12039141141501658
aF-0.6947171563758507
aF-0.19129691675701585
aF0.6828465935580342
aa(lp14
F0.5928765704602371
aF-0.18479680069434776
aF0.011999612751727437
aF-0.10960878712843608
aF-0.703022006298771
aF-0.17627610718196118
aF0.6802004899150381
aa(lp15
F0.6243086685369044
aF-0.12367103499026932
aF0.01580751431102729
aF-0.12331010004208379
aF-0.6999153766877497
aF-0.20563371314812254
aF0.6727762337661554
aa(lp16
F0.6559500299394131
aF-0.06301893107593044
aF0.02046559662339874
aF-0.12301939134974071
aF-0.7030785193094324
aF-0.1665656486613025
aF0.680296045647507
aasS'id'
p17
(lp18
I8
aI7
aI6
aI5
aI4
aI3
aI2
aI1
aI0
asS'conf'
p19
(lp20
I1
aI1
aI1
aI1
aI1
aI1
aI1
aI1
aI1
as.(dp0
S'viz'
p1
(lp2
I01
aI01
aI01
aI01
aI01
aI01
aI01
aI01
aI01
asS'frame'
p3
(lp4
S'torso_lift_link'
p5
ag5
ag5
ag5
ag5
ag5
ag5
ag5
ag5
asS'pose'
p6
(lp7
(lp8
F0.58274076897421
aF-0.17415083845456428
aF-0.09748459211838086
aF-0.16469814547651238
aF-0.6617567061091335
aF-0.1900849568032803
aF0.7062721090297156
aa(lp9
F0.6162963237291501
aF-0.11404315715218753
aF-0.09425364499106806
aF-0.1524018658227705
aF-0.6677359995322069
aF-0.2060853856420255
aF0.6988784730174771
aa(lp10
F0.6495432441617236
aF-0.05512269458239079
aF-0.09149029381849134
aF-0.14667953297430042
aF-0.6654346470321433
aF-0.2011714691934566
aF0.7037129280595847
aa(lp11
F0.5852099024219277
aF-0.18019206189079034
aF-0.029213029517573576
aF-0.1534598495545036
aF-0.6636560223860108
aF-0.17466670568511344
aF0.7109868497030011
aa(lp12
F0.6182592871748371
aF-0.12002468616874115
aF-0.02644483431207899
aF-0.14565945116412687
aF-0.6608262596396006
aF-0.19188064686273798
aF0.7108261364193339
aa(lp13
F0.6511234861833078
aF-0.06128678629059836
aF-0.024045351347282244
aF-0.14234194430766553
aF-0.6686780878180434
aF-0.20980266136397535
aF0.6989930107285135
aa(lp14
F0.653185216732967
aF-0.066533783170176
aF0.04389143146482529
aF-0.158271629157235
aF-0.6628544030950165
aF-0.16705985738761753
aF0.7125062355875161
aa(lp15
F0.6200123723642326
aF-0.12636606121136804
aF0.04152582284569018
aF-0.16470598487063262
aF-0.6591561236196073
aF-0.1882112554339747
aF0.7091979036704319
aa(lp16
F0.5866666943938644
aF-0.18662557108902622
aF0.039606986636365034
aF-0.12048049364401833
aF-0.6737092338517617
aF-0.19887752984984772
aF0.701461365290341
aasS'id'
p17
(lp18
I8
aI7
aI6
aI5
aI4
aI3
aI0
aI1
aI2
asS'conf'
p19
(lp20
I1
aI1
aI1
aI1
aI1
aI1
aI1
aI1
aI1
as.(dp0
S'viz'
p1
(lp2
I01
aI01
aI01
aI01
aI01
aI01
aI01
aI01
aI01
asS'frame'
p3
(lp4
S'torso_lift_link'
p5
ag5
ag5
ag5
ag5
ag5
ag5
ag5
ag5
asS'pose'
p6
(lp7
(lp8
F0.5929382995322898
aF-0.1901138497723472
aF-0.045012607158701964
aF-0.1506762629923585
aF-0.6880071949186705
aF-0.18937600851642586
aF0.6841633510421227
aa(lp9
F0.6254691591969243
aF-0.12923428050161867
aF-0.043325023357698805
aF-0.13839291840397913
aF-0.6964911028739567
aF-0.19796031053124188
aF0.6756916894615647
aa(lp10
F0.6580123754195225
aF-0.06948032036515651
aF-0.04233574644191015
aF-0.16208421107897333
aF-0.6810167605788212
aF-0.16534083013875242
aF0.6946994243690313
aa(lp11
F0.6576125271618366
aF-0.07243203830439583
aF0.0256587516778383
aF-0.15293664540222743
aF-0.6840352217123746
aF-0.191447385344053
aF0.6870619306837935
aa(lp12
F0.6246296557379357
aF-0.13220829628867856
aF0.024873193836322676
aF-0.16616908199224498
aF-0.6800608453368261
aF-0.17200318453100308
aF0.6930512155250936
aa(lp13
F0.5912469426790873
aF-0.19269994041066094
aF0.024162882217493638
aF-0.1470959780461848
aF-0.6904521402653984
aF-0.19210148057695392
aF0.6817152164985825
aa(lp14
F0.6578889209547161
aF-0.07486964446710936
aF0.09398706091774851
aF-0.14928930078760091
aF-0.6835886532846852
aF-0.15243338615820665
aF0.6979851864868788
aa(lp15
F0.6240617537204131
aF-0.1356187138292523
aF0.09353393904956785
aF-0.18168859404568288
aF-0.6764321802571401
aF-0.1838558188671789
aF0.6896562898828329
aa(lp16
F0.5891728666093614
aF-0.1957265366006779
aF0.0933527516914004
aF-0.1505509505621662
aF-0.6901785348184865
aF-0.188336837406516
aF0.6822882360383674
aasS'id'
p17
(lp18
I8
aI7
aI6
aI3
aI4
aI5
aI0
aI1
aI2
asS'conf'
p19
(lp20
I1
aI1
aI1
aI1
aI1
aI1
aI1
aI1
aI1
as.(dp0
S'viz'
p1
(lp2
I01
aI01
aI01
aI01
aI01
aI01
aI01
aI01
aI01
asS'frame'
p3
(lp4
S'torso_lift_link'
p5
ag5
ag5
ag5
ag5
ag5
ag5
ag5
ag5
asS'pose'
p6
(lp7
(lp8
F0.6648024968159052
aF-0.0867047069985188
aF0.023971089144685903
aF-0.14763520892742746
aF-0.7095585578244574
aF-0.1403532497547968
aF0.6745601999720252
aa(lp9
F0.6352222517684654
aF-0.14890449928280733
aF0.026192229885010215
aF-0.15753027267962955
aF-0.7285031939308765
aF-0.15629413196389402
aF0.6481045084981635
aa(lp10
F0.6051728703357555
aF-0.21238525627571847
aF0.028325633766750635
aF-0.190519689437061
aF-0.7193360437039157
aF-0.15365856799083788
aF0.6501130275945939
aa(lp11
F0.6613333622614541
aF-0.08507421991707352
aF0.09307998271636037
aF-0.14398822990186974
aF-0.7050255498033152
aF-0.1389521144962488
aF0.6803665729967052
aa(lp12
F0.6308642257878809
aF-0.14692649826591384
aF0.09547429228270508
aF-0.17041272256286297
aF-0.7117646921970507
aF-0.1784963046444612
aF0.6576394119565994
aa(lp13
F0.5975555851135725
aF-0.20881781397778298
aF0.09778954217463377
aF-0.17827745480488397
aF-0.7168476637365464
aF-0.14253594689114027
aF0.6588095930901385
aa(lp14
F0.6587654587663249
aF-0.08308717614890603
aF0.1630343204295195
aF-0.1630169139924692
aF-0.7121058299330475
aF-0.11996912661694323
aF0.6722634761657854
aa(lp15
F0.6252099018038055
aF-0.1446573625008264
aF0.1652175769393828
aF-0.1897373725069215
aF-0.7077495789035839
aF-0.18679165146683704
aF0.6543692703499003
aa(lp16
F0.5915062030156454
aF-0.20609946008081775
aF0.16754056384534025
aF-0.15022289594180768
aF-0.716636247808941
aF-0.15353804664453044
aF0.6635447521409245
aasS'id'
p17
(lp18
I6
aI7
aI8
aI3
aI4
aI5
aI0
aI1
aI2
asS'conf'
p19
(lp20
I1
aI1
aI1
aI1
aI1
aI1
aI1
aI1
aI1
as.(dp0
S'viz'
p1
(lp2
I01
aI01
aI01
aI01
aI01
aI01
aI01
aI01
aI00
asS'frame'
p3
(lp4
S'torso_lift_link'
p5
ag5
ag5
ag5
ag5
ag5
ag5
ag5
ag5
asS'pose'
p6
(lp7
(lp8
F0.6624197842162333
aF-0.09709794692419177
aF0.08079523119477593
aF-0.1913114758651123
aF-0.7018655934538072
aF-0.11313074360119847
aF0.6767466607086345
aa(lp9
F0.6315062001899436
aF-0.15881235421071804
aF0.08820216882008107
aF-0.18990574058865803
aF-0.7260026806185954
aF-0.15413961721606073
aF0.642726143727306
aa(lp10
F0.5986666959009053
aF-0.22127364016609413
aF0.09531944180712301
aF-0.19876556094907138
aF-0.7268860636841934
aF-0.12514929471162392
aF0.6453422008791018
aa(lp11
F0.6593703980799074
aF-0.09074324987552768
aF0.15122506537555191
aF-0.1771059504615766
aF-0.7079987760204571
aF-0.13237945894858058
aF0.6707062653003304
aa(lp12
F0.6266173087520364
aF-0.15220908509728334
aF0.15857421413615913
aF-0.21817099699816725
aF-0.7041420807239628
aF-0.15276336649446537
aF0.6582163018946215
aa(lp13
F0.5921234834341356
aF-0.2134811178401663
aF0.16546794698562167
aF-0.2082819480386825
aF-0.714782800394054
aF-0.13505996690833597
aF0.6538065338620936
aa(lp14
F0.6556049651569791
aF-0.08368284979168265
aF0.22217710960058532
aF-0.1850495177175853
aF-0.7133961570711329
aF-0.10608391393516406
aF0.6675094023853336
aa(lp15
F0.6226666905941107
aF-0.1446680173086813
aF0.2283748619449446
aF-0.22747188196005694
aF-0.7080862332076898
aF-0.14917182521990305
aF0.6516273442849506
aa(lp16
F0.0
aF0.0
aF0.0
aF0.0
aF0.0
aF0.0
aF0.0
aasS'id'
p17
(lp18
I6
aI7
aI8
aI3
aI4
aI5
aI0
aI1
aI2
asS'conf'
p19
(lp20
I1
aI1
aI1
aI1
aI1
aI1
aI1
aI1
aI1
as.(dp0
S'viz'
p1
(lp2
I01
aI01
aI01
aI01
aI01
aI01
aI01
aI01
aI00
asS'frame'
p3
(lp4
S'torso_lift_link'
p5
ag5
ag5
ag5
ag5
ag5
ag5
ag5
ag5
asS'pose'
p6
(lp7
(lp8
F0.659209899696303
aF-0.09402779965305018
aF0.0791853549027886
aF-0.19818518951936856
aF-0.6902847998906197
aF-0.1248943054088437
aF0.6845662408938831
aa(lp9
F0.6275555829942963
aF-0.1552836531842195
aF0.08725202226160499
aF-0.19717545732522462
aF-0.720944545987008
aF-0.15540064970180525
aF0.6459190651408521
aa(lp10
F0.5948889189296298
aF-0.2174907822667815
aF0.09540783724299197
aF-0.20854872205423863
aF-0.7157405823743561
aF-0.13492524455845809
aF0.6527005650777405
aa(lp11
F0.6578765724912102
aF-0.0876321265726912
aF0.15046016292439582
aF-0.21153664420531587
aF-0.6984498788216574
aF-0.1163301391569086
aF0.6737115953107086
aa(lp12
F0.6242469416724311
aF-0.14854046639836851
aF0.1583875480257436
aF-0.23090178177843845
aF-0.6960897269271141
aF-0.14534706131243713
aF0.664091628471491
aa(lp13
F0.5899506476190355
aF-0.20983796550167916
aF0.16647307317198073
aF-0.1869964866347238
aF-0.7172372605939323
aF-0.14691778931335564
aF0.6549948008841427
aa(lp14
F0.6563950924225795
aF-0.08048710559989183
aF0.2221988384370452
aF-0.18544305593879723
aF-0.7091377275364216
aF-0.12880797498654642
aF0.6679394148936152
aa(lp15
F0.6225526544608568
aF-0.14104501924624557
aF0.22855537816097876
aF-0.2267404205155136
aF-0.6960730572654146
aF-0.1455388669376978
aF0.6654994506865638
aa(lp16
F0.0
aF0.0
aF0.0
aF0.0
aF0.0
aF0.0
aF0.0
aasS'id'
p17
(lp18
I6
aI7
aI8
aI3
aI4
aI5
aI0
aI1
aI2
asS'conf'
p19
(lp20
I1
aI1
aI1
aI1
aI1
aI1
aI1
aI1
aI1
as.(dp0
S'viz'
p1
(lp2
I01
aI01
aI01
aI01
aI01
aI01
aI01
aI01
aI01
asS'frame'
p3
(lp4
S'torso_lift_link'
p5
ag5
ag5
ag5
ag5
ag5
ag5
ag5
ag5
asS'pose'
p6
(lp7
(lp8
F0.6594197808960338
aF-0.08652159122773143
aF0.0396356167800634
aF-0.16404302518416944
aF-0.7068752145047575
aF-0.14249481445670148
aF0.6731363493826709
aa(lp9
F0.6298271873850881
aF-0.14832496939249967
aF0.04458873909840627
aF-0.16168377060418934
aF-0.7216720248740538
aF-0.1550898874618024
aF0.6549770787168667
aa(lp10
F0.599666698479358
aF-0.21154405702779308
aF0.04935136097080927
aF-0.17747729419005834
aF-0.7253080822157464
aF-0.15077238542995128
aF0.6478407857732127
aa(lp11
F0.6578148441550172
aF-0.08300100351557305
aF0.1106759506611178
aF-0.16689940009784018
aF-0.7013961613225647
aF-0.12785770162093854
aF0.6810583112077576
aa(lp12
F0.626444469999384
aF-0.1447752691345449
aF0.11586864964093704
aF-0.20055151882760106
aF-0.7000434377196826
aF-0.1508150782689506
aF0.6685604578258286
aa(lp13
F0.5931481763168618
aF-0.20663374471075727
aF0.12095849114803632
aF-0.18610297238463314
aF-0.7231141961772468
aF-0.1366559721055076
aF0.6509966883513597
aa(lp14
F0.6561975611580741
aF-0.07898549443041822
aF0.182781270440714
aF-0.1636071237874049
aF-0.7069366864744551
aF-0.12258523947892834
aF0.6770864711574325
aa(lp15
F0.6223950834921849
aF-0.14071097723495798
aF0.18792426954081043
aF-0.17597674502182473
aF-0.7058936252407976
aF-0.19720315102726885
aF0.6571584985989638
aa(lp16
F0.588555583247432
aF-0.20202680679015156
aF0.19297935454933746
aF-0.183968521438745
aF-0.7093730635068131
aF-0.1426088584776311
aF0.6652880228700258
aasS'id'
p17
(lp18
I6
aI7
aI8
aI3
aI4
aI5
aI0
aI1
aI2
asS'conf'
p19
(lp20
I1
aI1
aI1
aI1
aI1
aI1
aI1
aI1
aI1
as.(dp0
S'viz'
p1
(lp2
I01
aI01
aI01
aI01
aI01
aI01
aI01
aI01
aI01
asS'frame'
p3
(lp4
S'torso_lift_link'
p5
ag5
ag5
ag5
ag5
ag5
ag5
ag5
ag5
asS'pose'
p6
(lp7
(lp8
F0.6570247183611364
aF-0.07414698708388526
aF-0.00869078234550931
aF-0.14851720010137132
aF-0.6949957741743019
aF-0.12796563762041666
aF0.6917718632195965
aa(lp9
F0.6295679263126703
aF-0.1361397008285109
aF-0.0075065378131297525
aF-0.14295156271445095
aF-0.7122126207396365
aF-0.13524468216042415
aF0.6738151894429222
aa(lp10
F0.6018518805503845
aF-0.2005487238183432
aF-0.005934180303068445
aF-0.15237898933807068
aF-0.7107918769519848
aF-0.15421892509460183
aF0.6691577350745103
aa(lp11
F0.656098794054102
aF-0.07429185506922212
aF0.061205600790771586
aF-0.1271205337523983
aF-0.6936176848194677
aF-0.1530277510279257
aF0.6923275125397822
aa(lp12
F0.6277160754910222
aF-0.13675825612412543
aF0.06327538344043286
aF-0.15354111302867737
aF-0.6906128157319513
aF-0.15338125337646843
aF0.6898936559132607
aa(lp13
F0.5973210180247271
aF-0.1995722045501072
aF0.06542790566145652
aF-0.13388806454979357
aF-0.7155734767371827
aF-0.15684121762809905
aF0.667404988005264
aa(lp14
F0.6561728708538008
aF-0.07466824543144954
aF0.1325712483606222
aF-0.13976224859832734
aF-0.6937580355875742
aF-0.13034179386167732
aF0.6943898895414085
aa(lp15
F0.6257160791644344
aF-0.13692267691647553
aF0.1345507316751246
aF-0.18035535643526535
aF-0.7026286473529109
aF-0.1711346966364077
aF0.6667067158288505
aa(lp16
F0.5936543507340514
aF-0.19925724808816542
aF0.13717070847381793
aF-0.14373282271535945
aF-0.7090852299766053
aF-0.1412381895300043
aF0.6757150184224017
aasS'id'
p17
(lp18
I6
aI7
aI8
aI3
aI4
aI5
aI0
aI1
aI2
asS'conf'
p19
(lp20
I1
aI1
aI1
aI1
aI1
aI1
aI1
aI1
aI1
as.(dp0
S'viz'
p1
(lp2
I01
aI01
aI01
aI01
aI01
aI01
aI01
aI01
aI01
asS'frame'
p3
(lp4
S'torso_lift_link'
p5
ag5
ag5
ag5
ag5
ag5
ag5
ag5
ag5
asS'pose'
p6
(lp7
(lp8
F0.6017531156539917
aF-0.19188741761961087
aF-0.03493707468388244
aF-0.1266485748815416
aF-0.7013944417228948
aF-0.15623310359420559
aF0.6838107873834878
aa(lp9
F0.6292469420550783
aF-0.12812528540322798
aF-0.03368100167516559
aF-0.11902139163014373
aF-0.7056668968831775
aF-0.15670326869595247
aF0.680670422860943
aa(lp10
F0.6568642280719899
aF-0.06588249503646353
aF-0.03314838544638054
aF-0.139562300822873
aF-0.685693552374146
aF-0.12253492325791782
aF0.7037982019043004
aa(lp11
F0.6563827454307933
aF-0.06860885639893405
aF0.03626322404791926
aF-0.13736944082615316
aF-0.6864158304096496
aF-0.14013444072927822
aF0.7002323064609585
aa(lp12
F0.6280247179078468
aF-0.13053458618161104
aF0.03620113108169163
aF-0.12297832672620577
aF-0.6910465539075566
aF-0.1664829836857618
aF0.6925419897964306
aa(lp13
F0.5987531174848109
aF-0.19390847609366887
aF0.036185951765488826
aF-0.1198382777499598
aF-0.7082324900789226
aF-0.14778039854786684
aF0.6798576917175873
aa(lp14
F0.6568889176404035
aF-0.0708682684204827
aF0.10662293470936071
aF-0.1168606847571795
aF-0.6858323106541928
aF-0.14703458365588404
aF0.7031062887145548
aa(lp15
F0.6270000301761391
aF-0.13330228803334399
aF0.1071923054110858
aF-0.17201861110791386
aF-0.6857807236740354
aF-0.1624714374797646
aF0.6882713334673177
aa(lp16
F0.5954691657313594
aF-0.19564964090600412
aF0.10770341680373688
aF-0.12228000097102708
aF-0.7055947443965582
aF-0.15340638076739452
aF0.6809186004085441
aasS'id'
p17
(lp18
I8
aI7
aI6
aI3
aI4
aI5
aI0
aI1
aI2
asS'conf'
p19
(lp20
I1
aI1
aI1
aI1
aI1
aI1
aI1
aI1
aI1
as.(dp0
S'viz'
p1
(lp2
I01
aI01
aI01
aI01
aI01
aI01
aI01
aI01
aI01
asS'frame'
p3
(lp4
S'torso_lift_link'
p5
ag5
ag5
ag5
ag5
ag5
ag5
ag5
ag5
asS'pose'
p6
(lp7
(lp8
F0.6007901540508976
aF-0.1815044893894665
aF-0.07073895830982983
aF-0.09989000963596667
aF-0.6983169540863761
aF-0.16488440510955807
aF0.6893392129874231
aa(lp9
F0.6285802744053028
aF-0.11780897732134205
aF-0.0671437669223472
aF-0.10582523938443307
aF-0.7011770925938094
aF-0.18764394034579626
aF0.6796627510629247
aa(lp10
F0.6560617589656218
aF-0.05581367639709755
aF-0.0636298572759568
aF-0.09998877741047821
aF-0.6844339503317834
aF-0.1807559888773092
aF0.6991993167260491
aa(lp11
F0.6558025001007833
aF-0.06114497598674548
aF0.004981517049420863
aF-0.138391216083665
aF-0.6801599638447646
aF-0.15617420186280023
aF0.7027374428377147
aa(lp12
F0.599456822430646
aF-0.18590971084288593
aF-0.000587983591550897
aF-0.09242541677108021
aF-0.7014104135999325
aF-0.1645256385823149
aF0.687322550391987
aa(lp13
F0.6278271895867807
aF-0.12290366336151391
aF0.0026266668264950973
aF-0.5680981435885335
aF-0.3974024505177765
aF0.3836675555012894
aF0.6100286865626836
aa(lp14
F0.6562592909659868
aF-0.065837239474058
aF0.07464373199108222
aF-0.11431654142332126
aF-0.6831951943411889
aF-0.1554742055328733
aF0.7042753908806109
aa(lp15
F0.6270617555688929
aF-0.12802902500570543
aF0.0721919153483563
aF-0.12113952186436613
aF-0.6920768563473401
aF-0.1975838515557994
aF0.6836047562409376
aa(lp16
F0.5973950940885662
aF-0.19081808288156235
aF0.07021802953547915
aF-0.09530903538624826
aF-0.7038781895048363
aF-0.16270806133706872
aF0.6848341177898991
aasS'id'
p17
(lp18
I8
aI7
aI6
aI3
aI5
aI4
aI0
aI1
aI2
asS'conf'
p19
(lp20
I1
aI1
aI1
aI1
aI1
aI1
aI1
aI1
aI1
as.(dp0
S'viz'
p1
(lp2
I01
aI01
aI01
aI01
aI01
aI01
aI01
aI01
aI01
asS'frame'
p3
(lp4
S'torso_lift_link'
p5
ag5
ag5
ag5
ag5
ag5
ag5
ag5
ag5
asS'pose'
p6
(lp7
(lp8
F0.6016173134615392
aF-0.17729180252846363
aF-0.09173099981781863
aF-0.10123437535394511
aF-0.6991293803015033
aF-0.1657602769390221
aF0.688108451797412
aa(lp9
F0.6284321274286435
aF-0.11337509054092698
aF-0.08688283914033264
aF-0.12351878363065823
aF-0.696276119666924
aF-0.15888830012542457
aF0.6889827162964446
aa(lp10
F0.6553210174595868
aF-0.05124610387202751
aF-0.08257958219375125
aF-0.12236000299939402
aF-0.6873843651754681
aF-0.16126204634969452
aF0.6975136676692552
aa(lp11
F0.5998271909760841
aF-0.18220436013775093
aF-0.021603387756773174
aF-0.09107311991330574
aF-0.699153978215099
aF-0.16033776876581082
aF0.6907830350279739
aa(lp12
F0.6273333592179381
aF-0.11937009443839375
aF-0.01762821984385345
aF-0.1253271994072657
aF-0.6845791920067452
aF-0.1632060106789527
aF0.6992912276286506
aa(lp13
F0.6548271892983236
aF-0.057274793442568514
aF-0.013830865030521727
aF-0.1069323956000284
aF-0.691421916659012
aF-0.18022035531589442
aF0.6913912202686913
aa(lp14
F0.6263457087822902
aF-0.12513428054474005
aF0.051846964077817206
aF-0.13373776317779895
aF-0.6872217176038129
aF-0.17148532452379808
aF0.6931329634542222
aa(lp15
F0.6545432408650718
aF-0.0629024834176639
aF0.05514304891780585
aF-0.11591650358833451
aF-0.688702140083008
aF-0.14498694007445267
aF0.7008791005935244
aa(lp16
F0.5974938545698001
aF-0.18802494851895307
aF0.048469197671906585
aF-0.09479623269973846
aF-0.7039066465287016
aF-0.15854924142153967
aF0.6858507456315179
aasS'id'
p17
(lp18
I8
aI7
aI6
aI5
aI4
aI3
aI1
aI0
aI2
asS'conf'
p19
(lp20
I1
aI1
aI1
aI1
aI1
aI1
aI1
aI1
aI1
as.(dp0
S'viz'
p1
(lp2
I01
aI01
aI01
aI01
aI01
aI01
aI01
aI01
aI01
asS'frame'
p3
(lp4
S'torso_lift_link'
p5
ag5
ag5
ag5
ag5
ag5
ag5
ag5
ag5
asS'pose'
p6
(lp7
(lp8
F0.6024321310314132
aF-0.17269547073929384
aF-0.1048189016220009
aF-0.0977888471489132
aF-0.7023352697199216
aF-0.16914305691712447
aF0.6845094130670973
aa(lp9
F0.6294444725837236
aF-0.10922221565320153
aF-0.09872615548931508
aF-0.10632908134537464
aF-0.6966419082559918
aF-0.1820770466176234
aF0.6857347353143946
aa(lp10
F0.6566790371765324
aF-0.047268255342539534
aF-0.09300161723369417
aF-0.10473658838189058
aF-0.6888800006117781
aF-0.18321879863330115
aF0.6934734772423593
aa(lp11
F0.6002469438093679
aF-0.1788060303823446
aF-0.03523689833826108
aF-0.08225323262511333
aF-0.699436314631977
aF-0.1587969214241699
aF0.6919586586227267
aa(lp12
F0.6279876813476468
aF-0.1157033683709155
aF-0.030075592897188377
aF-0.13065038992154857
aF-0.6782302736630118
aF-0.16325484493526835
aF0.7044728718023886
aa(lp13
F0.6553704017474328
aF-0.05399072498634995
aF-0.024800436640945753
aF-0.12282226064332481
aF-0.6881432810354733
aF-0.16342482489191526
aF0.6961794622547003
aa(lp14
F0.6258765716611603
aF-0.12261872492086726
aF0.038756051974624166
aF-0.10870817188472512
aF-0.692210592445558
aF-0.19522139223193388
aF0.6862329320913391
aa(lp15
F0.6546913907851701
aF-0.06056839753816143
aF0.04360710461566492
aF-0.1048054752227699
aF-0.6932715881952015
aF-0.16384047742750948
aF0.6939355988281317
aa(lp16
F0.5977037328260916
aF-0.18540586542200146
aF0.03443558148487864
aF-0.5654674227714357
aF-0.42652055586392584
aF0.39081731951313814
aF0.5878678694896702
aasS'id'
p17
(lp18
I8
aI7
aI6
aI5
aI4
aI3
aI1
aI0
aI2
asS'conf'
p19
(lp20
I1
aI1
aI1
aI1
aI1
aI1
aI1
aI1
aI1
as.(dp0
S'viz'
p1
(lp2
I01
aI01
aI01
aI01
aI01
aI01
aI01
aI01
aI01
asS'frame'
p3
(lp4
S'torso_lift_link'
p5
ag5
ag5
ag5
ag5
ag5
ag5
ag5
ag5
asS'pose'
p6
(lp7
(lp8
F0.6021852132714824
aF-0.17929128577679748
aF-0.08065988771893347
aF-0.11431287145277837
aF-0.6977879436147595
aF-0.1483330588913524
aF0.6913912472732356
aa(lp9
F0.6295679307278291
aF-0.11575783045939443
aF-0.07608479045239482
aF-0.11707639909151872
aF-0.6982083895835077
aF-0.16051698025707695
aF0.6877735532427207
aa(lp10
F0.6567284222002382
aF-0.05358903200400081
aF-0.07202444929215628
aF-0.13354271704177098
aF-0.6854373840321734
aF-0.1501161462162839
aF0.6998621849631567
aa(lp11
F0.6001852147373152
aF-0.18423299097720472
aF-0.011726197129816695
aF-0.10838936809558053
aF-0.7007112147146863
aF-0.14033113899935826
aF0.6910591218441822
aa(lp12
F0.6281975566604991
aF-0.12133195280660804
aF-0.007906549589357626
aF-0.11418781330163114
aF-0.6904972508067369
aF-0.1753436088204798
aF0.6924083396143786
aa(lp13
F0.6558642306445557
aF-0.05923947307430653
aF-0.004227619373848815
aF-0.1345174498443296
aF-0.684365782350552
aF-0.15222318789302264
aF0.7002689716835814
aa(lp14
F0.6554444741319727
aF-0.06452659862000987
aF0.06408417873360507
aF-0.11053272498982404
aF-0.6864912536188676
aF-0.15077653003540284
aF0.7026938973704003
aa(lp15
F0.5978025006659237
aF-0.18961179249080592
aF0.057570491859942445
aF-0.09424862634899871
aF-0.7070115615995229
aF-0.1605741120326962
aF0.6822520082351112
aa(lp16
F0.6267284206402155
aF-0.12688716723595123
aF0.060851514937333255
aF-0.12233566576363748
aF-0.6903685005974828
aF-0.19021260123249462
aF0.6872004690025459
aasS'id'
p17
(lp18
I8
aI7
aI6
aI5
aI4
aI3
aI0
aI2
aI1
asS'conf'
p19
(lp20
I1
aI1
aI1
aI1
aI1
aI1
aI1
aI1
aI1
as.(dp0
S'viz'
p1
(lp2
I01
aI01
aI01
aI01
aI01
aI01
aI01
aI01
aI01
asS'frame'
p3
(lp4
S'torso_lift_link'
p5
ag5
ag5
ag5
ag5
ag5
ag5
ag5
ag5
asS'pose'
p6
(lp7
(lp8
F0.6029506465535105
aF-0.18722965275799772
aF-0.05708648250610727
aF-0.11409613360616835
aF-0.6983954380167816
aF-0.14792230557411196
aF0.6909014951258322
aa(lp9
F0.6299012634489272
aF-0.12293338667095428
aF-0.05423283112453812
aF-0.11021078950422401
aF-0.7091499179017823
aF-0.15693033827979824
aF0.6784783303423473
aa(lp10
F0.6564197856702922
aF-0.06071224187351289
aF-0.05211160824070727
aF-0.10903975393165674
aF-0.692090408640005
aF-0.1601025167889063
aF0.6953332887535966
aa(lp11
F0.6003333646574138
aF-0.19005309737022996
aF0.012187713825425705
aF-0.11528424774517351
aF-0.7086594910236312
aF-0.14531980273235517
aF0.6807300661332558
aa(lp12
F0.6283827424049377
aF-0.12683183453333216
aF0.014103692844165282
aF-0.11941854291649344
aF-0.6905553784727793
aF-0.1555683438934925
aF0.6961831449038781
aa(lp13
F0.6559136112531028
aF-0.06444137805129996
aF0.0160181432104395
aF-0.12547858182579102
aF-0.691121167768253
aF-0.15363116713174577
aF0.6949849792991011
aa(lp14
F0.6558642269652567
aF-0.06821076120767314
aF0.0845593587023978
aF-0.11435951062551589
aF-0.6847397398346445
aF-0.13625414395523036
aF0.7067447907665846
aa(lp15
F0.6272592868333982
aF-0.1310171493409591
aF0.08313778355533707
aF-0.1352733665180575
aF-0.6962031252585412
aF-0.16736170746036155
aF0.6848301859344869
aa(lp16
F0.5976049686655586
aF-0.19367878775537736
aF0.08171887640599865
aF-0.1189665767641203
aF-0.703814162890769
aF-0.15272992506171415
aF0.683495535989838
aasS'id'
p17
(lp18
I8
aI7
aI6
aI5
aI4
aI3
aI0
aI1
aI2
asS'conf'
p19
(lp20
I1
aI1
aI1
aI1
aI1
aI1
aI1
aI1
aI1
as.(dp0
S'viz'
p1
(lp2
I01
aI01
aI01
aI01
aI01
aI01
aI01
aI01
aI01
asS'frame'
p3
(lp4
S'torso_lift_link'
p5
ag5
ag5
ag5
ag5
ag5
ag5
ag5
ag5
asS'pose'
p6
(lp7
(lp8
F0.660425030440092
aF-0.07351043191738411
aF-0.005322357488330307
aF-0.13986762673029846
aF-0.7014315828954317
aF-0.13666793017574652
aF0.6853850438776151
aa(lp9
F0.6330000287220802
aF-0.13643830151837535
aF-0.003791005554735336
aF-0.13903428104097648
aF-0.7087965723803603
aF-0.13311941417519207
aF0.6786428436570485
aa(lp10
F0.6054691657607938
aF-0.20008378661709053
aF-0.003302916218986439
aF-0.15514134687299855
aF-0.7067395257802629
aF-0.15354698222253935
aF0.6729589359245276
aa(lp11
F0.6590617586065222
aF-0.07408891558003264
aF0.06389794673448743
aF-0.13278557061534133
aF-0.6966322075087348
aF-0.13201011416074304
aF0.692563996650947
aa(lp12
F0.6314321300129832
aF-0.1367893541116772
aF0.06480879916085151
aF-0.1363609122908398
aF-0.6926715913788771
aF-0.16184934967673517
aF0.6895045729399345
aa(lp13
F0.6012099046766022
aF-0.1999060198112769
aF0.066097217531484
aF-0.15043904326114252
aF-0.7129110837115327
aF-0.14141954916468313
aF0.6701689280308197
aa(lp14
F0.6589012624304972
aF-0.07479143227324059
aF0.13335877408583974
aF-0.1296120923741254
aF-0.6941781701160764
aF-0.12105566677328004
aF0.6976122842860307
aa(lp15
F0.6291234853826924
aF-0.13736502901639452
aF0.13440883904695525
aF-0.16411102711063297
aF-0.6991711694436669
aF-0.16834271850924878
aF0.6751947687329813
aa(lp16
F0.5980617595307621
aF-0.2000804476531934
aF0.13583374244195456
aF-0.1403431120949298
aF-0.7047366816033175
aF-0.13992528352072867
aF0.6812275211130993
aasS'id'
p17
(lp18
I6
aI7
aI8
aI3
aI4
aI5
aI0
aI1
aI2
asS'conf'
p19
(lp20
I1
aI1
aI1
aI1
aI1
aI1
aI1
aI1
aI1
as.(dp0
S'viz'
p1
(lp2
I01
aI01
aI01
aI01
aI01
aI01
aI01
aI01
aI01
asS'frame'
p3
(lp4
S'torso_lift_link'
p5
ag5
ag5
ag5
ag5
ag5
ag5
ag5
ag5
asS'pose'
p6
(lp7
(lp8
F0.6616913860226855
aF-0.07981069144091474
aF0.01651418090504781
aF-0.15114342936151057
aF-0.6934471292082418
aF-0.11433159949426432
aF0.69513669742776
aa(lp9
F0.6346790415269358
aF-0.14275896100350355
aF0.01872290544252121
aF-0.13557177021818084
aF-0.7207234356534238
aF-0.13864927731834212
aF0.6655481968414724
aa(lp10
F0.6073333657818076
aF-0.20701496829221264
aF0.021507890889978884
aF-0.17566209559752424
aF-0.7149502006396204
aF-0.13530802021045504
aF0.6630842921095175
aa(lp11
F0.6596913896960976
aF-0.07837428913256253
aF0.0857618515046292
aF-0.14728591545744088
aF-0.7013383477246232
aF-0.1077414514214204
aF0.6890741329961274
aa(lp12
F0.6321975581439925
aF-0.141498937577377
aF0.08867659603739976
aF-0.15419779046875456
aF-0.701730977386718
aF-0.14927921515828138
aF0.6793470340791686
aa(lp13
F0.6016543551727578
aF-0.204794109345954
aF0.09142476807773862
aF-0.15515046926776568
aF-0.7112698347525338
aF-0.15107416712162436
aF0.6687302521088776
aa(lp14
F0.65888891911801
aF-0.07712851664350343
aF0.15570378413906819
aF-0.15127153773016153
aF-0.6987987494916541
aF-0.09838582626303165
aF0.6921831107244625
aa(lp15
F0.6288395354777206
aF-0.1401539172839234
aF0.1587370352612603
aF-0.17754885193342962
aF-0.7023709493825965
aF-0.16893395401909925
aF0.6682909350125767
aa(lp16
F0.5972345964408216
aF-0.202718647836167
aF0.16132247999862404
aF-0.13693893540155888
aF-0.7121973490655817
aF-0.13353717896977058
aF0.6754187484722654
aasS'id'
p17
(lp18
I6
aI7
aI8
aI3
aI4
aI5
aI0
aI1
aI2
asS'conf'
p19
(lp20
I1
aI1
aI1
aI1
aI1
aI1
aI1
aI1
aI1
as.(dp0
S'viz'
p1
(lp2
I01
aI01
aI01
aI01
aI01
aI01
aI01
aI01
aI01
asS'frame'
p3
(lp4
S'torso_lift_link'
p5
ag5
ag5
ag5
ag5
ag5
ag5
ag5
ag5
asS'pose'
p6
(lp7
(lp8
F0.6569259564081826
aF-0.08114122688586314
aF0.11836164168737567
aF-0.13711137052265165
aF-0.7075361692457979
aF-0.12328750395301964
aF0.6821973560865037
aa(lp9
F0.6548889191062363
aF-0.07777785148333605
aF0.18949231082274604
aF-0.14068130603026074
aF-0.7097529718785061
aF-0.11642519613764847
aF0.6803709743570482
aa(lp10
F0.6584074386843929
aF-0.08389055068478157
aF0.04831079706365694
aF-0.12498532208811017
aF-0.711875183843357
aF-0.12802128466323207
aF0.6791339651082792
aa(lp11
F0.6316173120781228
aF-0.14738127747435614
aF0.052742308327629384
aF-0.1492501729833531
aF-0.7211492477859567
aF-0.13710638218784504
aF0.6624726320728642
aa(lp12
F0.6032963262663947
aF-0.21175894207424573
aF0.057061062320883024
aF-0.17965220592065997
aF-0.7192649143569454
aF-0.13814371026990688
aF0.6567338754745342
aa(lp13
F0.6286790370941162
aF-0.14437081381494601
aF0.12290750885451295
aF-0.16058720776554414
aF-0.711682653151077
aF-0.15890784688558404
aF0.6651825659953043
aa(lp14
F0.5978271902343373
aF-0.2078010014177839
aF0.1271280506510795
aF-0.1646642236508687
aF-0.7190701857343188
aF-0.1284788390661463
aF0.6628098892968362
aa(lp15
F0.6248148414823744
aF-0.14107297611089387
aF0.1934802239691771
aF-0.18811737189547167
aF-0.7027364200448172
aF-0.1478547303746063
aF0.6700092216078729
aa(lp16
F0.5939876856627287
aF-0.20421375768420122
aF0.1977054686458024
aF-0.16094730359894877
aF-0.7102465543091413
aF-0.12566719446642993
aF0.6736865397135052
aasS'id'
p17
(lp18
I3
aI0
aI6
aI7
aI8
aI4
aI5
aI1
aI2
asS'conf'
p19
(lp20
I1
aI1
aI1
aI1
aI1
aI1
aI1
aI1
aI1
as.(dp0
S'viz'
p1
(lp2
I01
aI01
aI01
aI01
aI01
aI01
aI01
aI01
aI01
asS'frame'
p3
(lp4
S'torso_lift_link'
p5
ag5
ag5
ag5
ag5
ag5
ag5
ag5
ag5
asS'pose'
p6
(lp7
(lp8
F0.6484691669911514
aF-0.08228538858669761
aF0.12771008430439762
aF-0.14789840025007694
aF-0.7032297716970363
aF-0.1279265524579311
aF0.6835413290932967
aa(lp9
F0.6473457077403126
aF-0.07836413090979596
aF0.1990778611765969
aF-0.17633264849942296
aF-0.6972146242437751
aF-0.09600465928823182
aF0.6881727037660974
aa(lp10
F0.6484444737434387
aF-0.08591083273475537
aF0.056904460131018395
aF-0.17325274138265265
aF-0.690495105594285
aF-0.11034951510011712
aF0.693558203232362
aa(lp11
F0.6214321226249506
aF-0.14922648651732326
aF0.06235727644812927
aF-0.14810002513500142
aF-0.7151325746249413
aF-0.1452794140795484
aF0.6674920786870941
aa(lp12
F0.593209907596494
aF-0.21371796627839396
aF0.0680350192167142
aF-0.16624417217623993
aF-0.7185418408930385
aF-0.13117160696745642
aF0.6624609480030164
aa(lp13
F0.6190247153058465
aF-0.14542659245155462
aF0.13311771551767998
aF-0.17907169185157817
aF-0.7012735944152446
aF-0.1488685286934404
aF0.6737854525870879
aa(lp14
F0.5889382987846563
aF-0.20879316856095806
aF0.13910300744536497
aF-0.1633880566191921
aF-0.7156049627718758
aF-0.1256393609224894
aF0.6674043985451805
aa(lp15
F0.616765457170981
aF-0.14135264708304096
aF0.20451436918458835
aF-0.18570754942128384
aF-0.7005358546790311
aF-0.1556997121979106
aF0.6712077338786767
aa(lp16
F0.585901262583556
aF-0.2042602106744859
aF0.21008349403187093
aF-0.16455423744789763
aF-0.710436121952989
aF-0.12902909609801264
aF0.6719776126646396
aasS'id'
p17
(lp18
I3
aI0
aI6
aI7
aI8
aI4
aI5
aI1
aI2
asS'conf'
p19
(lp20
I1
aI1
aI1
aI1
aI1
aI1
aI1
aI1
aI1
as.(dp0
S'viz'
p1
(lp2
I01
aI01
aI01
aI01
aI01
aI01
aI01
aI01
aI01
asS'frame'
p3
(lp4
S'torso_lift_link'
p5
ag5
ag5
ag5
ag5
ag5
ag5
ag5
ag5
asS'pose'
p6
(lp7
(lp8
F0.6439259567378479
aF-0.07828336634017788
aF0.02722909052591831
aF-0.16906806110031522
aF-0.68725233640881
aF-0.1588459241087502
aF0.6883808460514057
aa(lp9
F0.6128024959269865
aF-0.13951976130038118
aF0.030156956629160882
aF-0.15619672314963556
aF-0.7049941185893832
aF-0.16744912603437034
aF0.671227730820189
aa(lp10
F0.5816420066503831
aF-0.20150723107802998
aF0.03318837370125613
aF-0.1797740701620534
aF-0.6992861626614183
aF-0.1868692879404765
aF0.6661531472809064
aa(lp11
F0.64374076804997
aF-0.07777010306348021
aF0.09774532095517655
aF-0.15501468016997813
aF-0.683976507112961
aF-0.15756128863992372
aF0.695212936424143
aa(lp12
F0.6118148418120396
aF-0.13903776052189448
aF0.10103837244304624
aF-0.1757540924944414
aF-0.6882954457908049
aF-0.17413058118133598
aF0.6819372544248794
aa(lp13
F0.5788148472338547
aF-0.20021038191553972
aF0.10446545086157187
aF-0.17640714145830635
aF-0.6971328178872233
aF-0.17770151590946165
aF0.6717950028919596
aa(lp14
F0.6444321260040189
aF-0.0762593219539632
aF0.16978831239688555
aF-0.17249331124320627
aF-0.6906291866190224
aF-0.13762358177936626
aF0.6887213761054028
aa(lp15
F0.6105185467519878
aF-0.13794693361829816
aF0.1724761549705342
aF-0.1948496618941017
aF-0.6856770122198711
aF-0.1811922708640408
aF0.677532290855659
aa(lp16
F0.5770370607022886
aF-0.19905522660708708
aF0.17597590791590434
aF-0.16912483984111712
aF-0.6918064131207333
aF-0.1667070370568808
aF0.6819160059050219
aasS'id'
p17
(lp18
I6
aI7
aI8
aI3
aI4
aI5
aI0
aI1
aI2
asS'conf'
p19
(lp20
I1
aI1
aI1
aI1
aI1
aI1
aI1
aI1
aI1
as.(dp0
S'viz'
p1
(lp2
I01
aI01
aI01
aI01
aI01
aI01
aI01
aI01
aI01
asS'frame'
p3
(lp4
S'torso_lift_link'
p5
ag5
ag5
ag5
ag5
ag5
ag5
ag5
ag5
asS'pose'
p6
(lp7
(lp8
F0.6451358338932933
aF-0.0734223898592185
aF0.00969265199001939
aF-0.1718492717425276
aF-0.6769291926802276
aF-0.1761070699026598
aF0.6937009412053279
aa(lp9
F0.613111138343811
aF-0.13319490474683254
aF0.010760729612184846
aF-0.16203079648621715
aF-0.6979881122383146
aF-0.16717730002236086
aF0.6772077720473012
aa(lp10
F0.5821358311323472
aF-0.1954666901517796
aF0.011977296537449599
aF-0.15669332366175664
aF-0.7013746574859275
aF-0.18832813259415637
aF0.6693678410484983
aa(lp11
F0.644913610116935
aF-0.07427527642360425
aF0.07999835908412947
aF-0.16855063751355834
aF-0.68225649343378
aF-0.17062535595405218
aF0.690654579125317
aa(lp12
F0.6121234812854249
aF-0.13459424630359354
aF0.08148969374137173
aF-0.18411452983210097
aF-0.6828679857897465
aF-0.1637323044127924
aF0.6877389667452584
aa(lp13
F0.578777806258496
aF-0.19580359804777436
aF0.08317262173434846
aF-0.153629273108302
aF-0.7032131220074631
aF-0.19009152223217735
aF0.6676485337782037
aa(lp14
F0.6451481772057803
aF-0.07481278411952051
aF0.15149730499143968
aF-0.13278849074575536
aF-0.698876364546245
aF-0.18691070191159168
aF0.677497921262497
aa(lp15
F0.6101975617585359
aF-0.13582491177467637
aF0.15274907464598445
aF-0.16915573234065692
aF-0.6880135558297338
aF-0.20690538055611074
aF0.6746953747490441
aa(lp16
F0.5758642274656414
aF-0.19633483787377665
aF0.15437674264848983
aF-0.1650243208467073
aF-0.6917373055353739
aF-0.16314278107530508
aF0.6838500615213536
aasS'id'
p17
(lp18
I6
aI7
aI8
aI3
aI4
aI5
aI0
aI1
aI2
asS'conf'
p19
(lp20
I1
aI1
aI1
aI1
aI1
aI1
aI1
aI1
aI1
as.(dp0
S'viz'
p1
(lp2
I01
aI01
aI01
aI01
aI01
aI01
aI01
aI01
aI01
asS'frame'
p3
(lp4
S'torso_lift_link'
p5
ag5
ag5
ag5
ag5
ag5
ag5
ag5
ag5
asS'pose'
p6
(lp7
(lp8
F0.586851880138303
aF-0.186995200647248
aF-0.03272194221017892
aF-0.13530019193777962
aF-0.6892351942742793
aF-0.16210976564256183
aF0.6930866676820513
aa(lp9
F0.6143950908272354
aF-0.12333428006113296
aF-0.03152084855339764
aF-0.13433315600048745
aF-0.6933384907708998
aF-0.16610731923510802
aF0.6882184964900359
aa(lp10
F0.6426420071978627
aF-0.0616779566041112
aF-0.030578814515912833
aF-0.11539145673872553
aF-0.6792392574771283
aF-0.1689633371354378
aF0.7048192913915526
aa(lp11
F0.6433580554561851
aF-0.0652351115358831
aF0.03857208935566905
aF-0.1389204407188228
aF-0.6823612871521154
aF-0.15563113925712074
aF0.7006162526234507
aa(lp12
F0.6147654579009538
aF-0.12703993624007248
aF0.038161178280450084
aF-0.13882072186727654
aF-0.6784162778731162
aF-0.16071177922739596
aF0.7033149259859339
aa(lp13
F0.5852099038936474
aF-0.1899606226035105
aF0.03825034934705435
aF-0.1265132636972611
aF-0.6995397059528994
aF-0.15992011700974937
aF0.6848825812353433
aa(lp14
F0.6451111472683189
aF-0.06874514062555469
aF0.10894928375879939
aF-0.13019881758793922
aF-0.6771551171035063
aF-0.15030614588704713
aF0.7084612041515196
aa(lp15
F0.6148765675815535
aF-0.1307517650870628
aF0.10935964269770532
aF-0.17340266817898686
aF-0.6795871451212739
aF-0.16809976210794914
aF0.69270144855744
aa(lp16
F0.5834938523210125
aF-0.19286297327942303
aF0.10935613890121026
aF-0.12526413797356717
aF-0.6976758134539807
aF-0.16670951492429817
aF0.6853942607673125
aasS'id'
p17
(lp18
I8
aI7
aI6
aI3
aI4
aI5
aI0
aI1
aI2
asS'conf'
p19
(lp20
I1
aI1
aI1
aI1
aI1
aI1
aI1
aI1
aI1
as.(dp0
S'viz'
p1
(lp2
I01
aI01
aI01
aI01
aI01
aI01
aI01
aI01
aI01
asS'frame'
p3
(lp4
S'torso_lift_link'
p5
ag5
ag5
ag5
ag5
ag5
ag5
ag5
ag5
asS'pose'
p6
(lp7
(lp8
F0.5897778022436448
aF-0.1796705337586225
aF-0.05730154388296738
aF-0.11417075221934116
aF-0.6882386267233991
aF-0.1499610763532252
aF0.7005742698690424
aa(lp9
F0.6168024981463397
aF-0.1157520461413594
aF-0.053628610332070906
aF-0.12416842931779067
aF-0.6932818341060576
aF-0.1587946757978788
aF0.6919008242497912
aa(lp10
F0.6436049724802558
aF-0.053958144178038986
aF-0.05052694059724411
aF-0.10300459035170338
aF-0.6811352029836601
aF-0.17021002229972482
aF0.7046087126424233
aa(lp11
F0.5888518779366104
aF-0.18450925280282512
aF0.013284080902568803
aF-0.10098457043572807
aF-0.6964446998330923
aF-0.15988069309069936
aF0.6922463871954428
aa(lp12
F0.6169506443871392
aF-0.12125904243669378
aF0.015756320813383445
aF-0.12193167722869637
aF-0.6804194438762696
aF-0.16171098436118708
aF0.7042809127189525
aa(lp13
F0.6446420072037496
aF-0.05952780932463966
aF0.018187373243473658
aF-0.13057088889775442
aF-0.6819850971200926
aF-0.15832531498070485
aF0.7019833793721962
aa(lp14
F0.6458734530436842
aF-0.06479011714647073
aF0.08819826994138444
aF-0.12197156256921059
aF-0.6821083899181184
aF-0.14185734161419813
aF0.7069141227602475
aa(lp15
F0.6169753376348519
aF-0.12690438028470954
aF0.08580312109839783
aF-0.1258897427573031
aF-0.6854760823311637
aF-0.19213273662083277
aF0.6909119515097487
aa(lp16
F0.5871975605870471
aF-0.18959306173118526
aF0.08388189893261896
aF-0.09925391317537077
aF-0.696315683768962
aF-0.16933586094429698
aF0.6903756191052757
aasS'id'
p17
(lp18
I8
aI7
aI6
aI5
aI4
aI3
aI0
aI1
aI2
asS'conf'
p19
(lp20
I1
aI1
aI1
aI1
aI1
aI1
aI1
aI1
aI1
as.(dp0
S'viz'
p1
(lp2
I01
aI01
aI01
aI01
aI01
aI01
aI01
aI01
aI01
asS'frame'
p3
(lp4
S'torso_lift_link'
p5
ag5
ag5
ag5
ag5
ag5
ag5
ag5
ag5
asS'pose'
p6
(lp7
(lp8
F0.5927654622513571
aF-0.17020523099251722
aF-0.0905718347172677
aF-0.10303172709783825
aF-0.6953401131911537
aF-0.1733360629035583
aF0.6898124379102221
aa(lp9
F0.6202911681766752
aF-0.10669024069852452
aF-0.08506945713977257
aF-0.10529374319407137
aF-0.700881443130379
aF-0.17968552539428242
aF0.6821961171711834
aa(lp10
F0.6473457128913315
aF-0.04526232944105818
aF-0.07874452032976667
aF-0.09377239550793784
aF-0.6926234444287472
aF-0.1896936129443552
aF0.6895620604967171
aa(lp11
F0.5905061982296131
aF-0.17657208508915356
aF-0.020811724046785482
aF-0.09703173299447983
aF-0.701472395411166
aF-0.16539754396496453
aF0.6864145786028779
aa(lp12
F0.6186049683594409
aF-0.11406200482153583
aF-0.015439378045913109
aF-0.11274382910371675
aF-0.6910909384955369
aF-0.19059202816001702
aF0.688009318636195
aa(lp13
F0.646629665368869
aF-0.05230371720261029
aF-0.010127255221667703
aF-0.10901343331729764
aF-0.6858674075267429
aF-0.1841356126706226
aF0.6955544887320722
aa(lp14
F0.6170247182433988
aF-0.12104965950603824
aF0.05371992140548479
aF-0.1273353963671561
aF-0.6842868910747523
aF-0.19694038758170437
aF0.6904720351139771
aa(lp15
F0.645827191847342
aF-0.059308949933835606
aF0.058523507857764355
aF-0.09839939241796158
aF-0.6923880741321027
aF-0.16891025607204446
aF0.6945398762958758
aa(lp16
F0.5876666918212985
aF-0.18337271971467087
aF0.049273007514852196
aF-0.570931397078482
aF-0.4211274791799809
aF0.37663589847960505
aF0.595679768068371
aasS'id'
p17
(lp18
I8
aI7
aI6
aI5
aI4
aI3
aI1
aI0
aI2
asS'conf'
p19
(lp20
I1
aI1
aI1
aI1
aI1
aI1
aI1
aI1
aI1
as.(dp0
S'viz'
p1
(lp2
I01
aI01
aI01
aI01
aI01
aI01
aI01
aI01
aI01
asS'frame'
p3
(lp4
S'torso_lift_link'
p5
ag5
ag5
ag5
ag5
ag5
ag5
ag5
ag5
asS'pose'
p6
(lp7
(lp8
F0.5921605236736345
aF-0.16754250193451642
aF-0.09725313955618999
aF-0.07905277825315996
aF-0.7045835746663006
aF-0.18272647759715757
aF0.6811194307504741
aa(lp9
F0.6184074326797768
aF-0.10401767728689262
aF-0.09028015819228712
aF-0.10799696154432634
aF-0.6981133652315568
aF-0.1833694180574172
aF0.6836300476892078
aa(lp10
F0.6452592935091184
aF-0.04217507463296355
aF-0.08365905330872817
aF-0.10564432326986123
aF-0.6857093520055614
aF-0.18126753775672164
aF0.6969820953859445
aa(lp11
F0.5897160768508911
aF-0.17464239630434233
aF-0.02785125419348005
aF-0.08954947327701046
aF-0.6994432941354191
aF-0.15907280689423003
aF0.6909817741674483
aa(lp12
F0.6171481756516445
aF-0.11178950608512486
aF-0.02163810838936573
aF-0.08562670695534846
aF-0.6900018342812243
aF-0.22308378045168806
aF0.6832270213069092
aa(lp13
F0.6443950953306975
aF-0.050244681183306106
aF-0.015589230813166375
aF-0.09136588543645577
aF-0.6855789176993685
aF-0.19063968272428902
aF0.6966278303049322
aa(lp14
F0.6153457039668236
aF-0.11966456815048487
aF0.047049397602677484
aF-0.12305958880424185
aF-0.6844989383564125
aF-0.19013013426733155
aF0.6929416086769228
aa(lp15
F0.6439506507214204
aF-0.057782318495949704
aF0.0526522316820461
aF-0.11054524083268137
aF-0.681949208719771
aF-0.16555567904194438
aF0.7037871436682283
aa(lp16
F0.5870617576587347
aF-0.18216746486263496
aF0.04193923845427285
aF-0.5664592888713902
aF-0.4222534919697675
aF0.3864754203920054
aF0.5928428223428863
aasS'id'
p17
(lp18
I8
aI7
aI6
aI5
aI4
aI3
aI1
aI0
aI2
asS'conf'
p19
(lp20
I1
aI1
aI1
aI1
aI1
aI1
aI1
aI1
aI1
as.(dp0
S'viz'
p1
(lp2
I01
aI01
aI01
aI01
aI01
aI01
aI01
aI01
aI01
asS'frame'
p3
(lp4
S'torso_lift_link'
p5
ag5
ag5
ag5
ag5
ag5
ag5
ag5
ag5
asS'pose'
p6
(lp7
(lp8
F0.5840494139694873
aF-0.17041449544974302
aF-0.07989634872402661
aF-0.11528982221517226
aF-0.6880942433736482
aF-0.18784059583223497
aF0.6913396268745424
aa(lp9
F0.6130987950313238
aF-0.10783945255809346
aF-0.0743903984074238
aF-0.1365876460581917
aF-0.6871540520359063
aF-0.1844725885352782
aF0.6892989103386217
aa(lp10
F0.642098793277034
aF-0.04699593324783347
aF-0.06926163920649762
aF-0.11759201987073115
aF-0.6764550394767285
aF-0.18353651159288192
aF0.7034877719915076
aa(lp11
F0.582851880862389
aF-0.17680891071572702
aF-0.011118413371689211
aF-0.11231993565624412
aF-0.6916731474534672
aF-0.1836254470179812
aF0.6893868176527876
aa(lp12
F0.6125308930138011
aF-0.11498381576420334
aF-0.006337954630402505
aF-0.1214236926542579
aF-0.6832532900296615
aF-0.19236412390189414
aF0.693842397350655
aa(lp13
F0.6418375328183175
aF-0.053866704268148026
aF-0.0017301309642787995
aF-0.10464001789333228
aF-0.6813930272483081
aF-0.20608676899240708
aF0.6944654438623563
aa(lp14
F0.6119259544360784
aF-0.12203673771869974
aF0.06218544784703386
aF-0.1302594018265259
aF-0.6788616389879251
aF-0.19865352619279722
aF0.6947777629412094
aa(lp15
F0.6420000320599403
aF-0.060761742553685036
aF0.06664101558702977
aF-0.10006617003127148
aF-0.6790399099937389
aF-0.17882405209823884
aF0.7049209321917842
aa(lp16
F0.5808765726324953
aF-0.18347503715827126
aF0.05802172040681793
aF-0.5753432331491627
aF-0.40515378459757195
aF0.3612094972640912
aF0.6118482442419484
aasS'id'
p17
(lp18
I8
aI7
aI6
aI5
aI4
aI3
aI1
aI0
aI2
asS'conf'
p19
(lp20
I1
aI1
aI1
aI1
aI1
aI1
aI1
aI1
aI1
as.(dp0
S'viz'
p1
(lp2
I01
aI01
aI01
aI01
aI01
aI01
aI01
aI01
aI01
asS'frame'
p3
(lp4
S'torso_lift_link'
p5
ag5
ag5
ag5
ag5
ag5
ag5
ag5
ag5
asS'pose'
p6
(lp7
(lp8
F0.582567928749838
aF-0.1762906382113326
aF-0.06117820509789889
aF-0.1353317850704769
aF-0.6882229117129107
aF-0.16907540446605962
aF0.6924218651571308
aa(lp9
F0.6114815120343808
aF-0.11369308086089132
aF-0.05720632909624651
aF-0.13189191934341066
aF-0.6942111028604908
aF-0.17429770528410596
aF0.6857811430841674
aa(lp10
F0.6403086752067378
aF-0.05253137159563678
aF-0.05335338365424549
aF-0.11444678945694838
aF-0.680085438068991
aF-0.19112166834275213
aF0.6984684940635395
aa(lp11
F0.5812592881697195
aF-0.18156746537597077
aF0.00768761960344034
aF-0.13678062950869607
aF-0.6882024157465628
aF-0.17036248301988227
aF0.6918418307179033
aa(lp12
F0.6113827478738478
aF-0.1196902825876517
aF0.011159859670981624
aF-0.1075034827762088
aF-0.6804647470354915
aF-0.1994541390999678
aF0.6968707022316267
aa(lp13
F0.6405802773840634
aF-0.058520531380709895
aF0.014285562331443449
aF-0.13621236294740918
aF-0.6749204800051419
aF-0.16681291053760416
aF0.705763409881729
aa(lp14
F0.6414691688101969
aF-0.06412340044791301
aF0.08273826516520844
aF-0.1082728840147567
aF-0.6795041996233963
aF-0.17496141930168674
aF0.7042297402391027
aa(lp15
F0.6110617577293773
aF-0.12569152905985148
aF0.07963861750415828
aF-0.12461624330923961
aF-0.6805549954387689
aF-0.2062250754301229
aF0.6919442956992058
aa(lp16
F0.5795375287532807
aF-0.18742128461599336
aF0.07693932643160237
aF-0.11806242219499535
aF-0.6928014403142211
aF-0.188447465796809
aF0.6859846801487273
aasS'id'
p17
(lp18
I8
aI7
aI6
aI5
aI4
aI3
aI0
aI1
aI2
asS'conf'
p19
(lp20
I1
aI1
aI1
aI1
aI1
aI1
aI1
aI1
aI1
as.(dp0
S'viz'
p1
(lp2
I01
aI01
aI01
aI01
aI01
aI01
aI01
aI01
aI01
asS'frame'
p3
(lp4
S'torso_lift_link'
p5
ag5
ag5
ag5
ag5
ag5
ag5
ag5
ag5
asS'pose'
p6
(lp7
(lp8
F0.6404074401031307
aF-0.06191714521451483
aF0.027394934229690863
aF-0.1287631150000998
aF-0.6920707673353698
aF-0.1651412617872603
aF0.6907868534292003
aa(lp9
F0.6414568210825508
aF-0.0668089387915383
aF0.09638824838179143
aF-0.384097098175326
aF0.5683396208371987
aF0.608594280771296
aF-0.3988389348752103
aa(lp10
F0.6110247241126167
aF-0.12846710819888985
aF0.09415912425812394
aF-0.13669553794284273
aF-0.6790206628653104
aF-0.20402613872060357
aF0.6918226680495749
aa(lp11
F0.5793210172358855
aF-0.1901305333699708
aF0.0921627927893475
aF-0.13199200386250712
aF-0.6924463963917117
aF-0.16822173120928877
aF0.6890555479708745
aa(lp12
F0.5835308918246517
aF-0.1814314731477218
aF-0.04623193721528393
aF-0.12744965386912493
aF-0.6925629293426097
aF-0.16564878053752352
aF0.6904155677093725
aa(lp13
F0.6115802784024933
aF-0.11834982388917296
aF-0.043365528968013226
aF-0.1400827145031108
aF-0.6909568934552196
aF-0.1660086483664899
aF0.689490052975156
aa(lp14
F0.6399629932862742
aF-0.05680927914325824
aF-0.04029149010225565
aF-0.12543876379303107
aF-0.6774263035421326
aF-0.16796155153629727
aF0.7050869712403132
aa(lp15
F0.6110617562576577
aF-0.12323652550026208
aF0.025187326638304107
aF-0.11312806069910893
aF-0.6829902432183588
aF-0.1853125055044406
aF0.6974135393399332
aa(lp16
F0.581469162746712
aF-0.18557845821351165
aF0.022834816309451084
aF-0.11694840514009523
aF-0.6959547875480899
aF-0.18034038958258758
aF0.6851622786678216
aasS'id'
p17
(lp18
I3
aI0
aI1
aI2
aI8
aI7
aI6
aI4
aI5
asS'conf'
p19
(lp20
I1
aI1
aI1
aI1
aI1
aI1
aI1
aI1
aI1
as.(dp0
S'viz'
p1
(lp2
I01
aI01
aI01
aI01
aI01
aI01
aI01
aI01
aI01
asS'frame'
p3
(lp4
S'torso_lift_link'
p5
ag5
ag5
ag5
ag5
ag5
ag5
ag5
ag5
asS'pose'
p6
(lp7
(lp8
F0.6402839812231652
aF-0.0732089277816774
aF0.005080106155084657
aF-0.14024315339880286
aF-0.6943930168706164
aF-0.12966964680942042
aF0.6937838126840405
aa(lp9
F0.6128271869671198
aF-0.13569553823750682
aF0.005890006228942376
aF-0.1457157295092391
aF-0.7128593677798926
aF-0.13738490745497742
aF0.6721040359539805
aa(lp10
F0.585481509750272
aF-0.19969546070069427
aF0.006349841720585692
aF-0.15838197965187722
aF-0.716326691978947
aF-0.1576881815715148
aF0.6610035221333695
aa(lp11
F0.6390000294756006
aF-0.07377120858909157
aF0.07392702417241216
aF-0.1351198028699889
aF-0.6960723604065495
aF-0.13437218181267283
aF0.69222108080102
aa(lp12
F0.6107778048809663
aF-0.13664660439079176
aF0.07529509030742423
aF-0.16732463854791413
aF-0.6900846978684163
aF-0.1484369400453036
aF0.6882964840333368
aa(lp13
F0.5800741013185478
aF-0.19915928141570372
aF0.07626109878406125
aF-0.1596377846591184
aF-0.7126080835477769
aF-0.15482053732235285
aF0.6653841733876088
aa(lp14
F0.6387778123219808
aF-0.07463011483167412
aF0.14421246044429745
aF-0.10995777151174642
aF-0.699854316879724
aF-0.1437041315710056
aF0.6909865021825017
aa(lp15
F0.6078889222792637
aF-0.13689887819834684
aF0.14517067400393677
aF-0.17006767114506732
aF-0.7025563252372092
aF-0.18221587283810847
aF0.6665500527239706
aa(lp16
F0.5756049656573637
aF-0.19885364940137024
aF0.14613799833589144
aF-0.15027968872440375
aF-0.7094314978877504
aF-0.15232424728852872
aF0.6715059855650003
aasS'id'
p17
(lp18
I6
aI7
aI8
aI3
aI4
aI5
aI0
aI1
aI2
asS'conf'
p19
(lp20
I1
aI1
aI1
aI1
aI1
aI1
aI1
aI1
aI1
as.(dp0
S'viz'
p1
(lp2
I01
aI01
aI01
aI01
aI01
aI01
aI01
aI01
aI01
asS'frame'
p3
(lp4
S'torso_lift_link'
p5
ag5
ag5
ag5
ag5
ag5
ag5
ag5
ag5
asS'pose'
p6
(lp7
(lp8
F0.6388765742749344
aF-0.07552420043926902
aF0.015973087393011995
aF-0.13254576710321173
aF-0.6965306905344222
aF-0.13182580256996845
aF0.6927471216421226
aa(lp9
F0.6112000308930874
aF-0.13841700674965965
aF0.017425501066463903
aF-0.14050077387047333
aF-0.7142082550371166
aF-0.1470556756966913
aF0.6697318338141205
aa(lp10
F0.5832963225282268
aF-0.20215583741664872
aF0.01932685611694834
aF-0.15978778749918068
aF-0.7142628066783248
aF-0.15924979598044792
aF0.6625224588210611
aa(lp11
F0.6378025015195211
aF-0.07574977417143025
aF0.08500924720256431
aF-0.11901726775145008
aF-0.6939157588507527
aF-0.15395667664511442
aF0.6932626856480563
aa(lp12
F0.6094321284765079
aF-0.13845787971843895
aF0.08733216314404113
aF-0.1666825267195859
aF-0.6930833320298878
aF-0.15550075494757254
aF0.6838654438992059
aa(lp13
F0.5779506475837143
aF-0.20070256322254354
aF0.08917893607307376
aF-0.16605934991456578
aF-0.7064655929972397
aF-0.1632237780648653
aF0.6683477062811257
aa(lp14
F0.637753121646834
aF-0.07556548254265447
aF0.15544802888675985
aF-0.13107781252916484
aF-0.7006511378060166
aF-0.12897299374543442
aF0.6894001429054418
aa(lp15
F0.6063333617316352
aF-0.13817920831986402
aF0.15763273154511878
aF-0.17584168681405316
aF-0.6979322121136488
aF-0.17948567617506705
aF0.6706379205804844
aa(lp16
F0.5736543469958835
aF-0.19992925256122762
aF0.15963196809645067
aF-0.15650659011368875
aF-0.7034596818272313
aF-0.1554536740165098
aF0.6756362323982376
aasS'id'
p17
(lp18
I6
aI7
aI8
aI3
aI4
aI5
aI0
aI1
aI2
asS'conf'
p19
(lp20
I1
aI1
aI1
aI1
aI1
aI1
aI1
aI1
aI1
as.(dp0
S'viz'
p1
(lp2
I01
aI01
aI01
aI01
aI01
aI01
aI01
aI01
aI01
asS'frame'
p3
(lp4
S'torso_lift_link'
p5
ag5
ag5
ag5
ag5
ag5
ag5
ag5
ag5
asS'pose'
p6
(lp7
(lp8
F0.6357037351455217
aF-0.0788313498743521
aF0.032568984975417596
aF-0.14878368799636774
aF-0.6973961663787622
aF-0.14627606104047927
aF0.6856422647947598
aa(lp9
F0.6070370666774703
aF-0.1407134244287454
aF0.035981283960059236
aF-0.1633611191803252
aF-0.7056475961412582
aF-0.15550415402218268
aF0.6717090686316961
aa(lp10
F0.5764691601564855
aF-0.2040040087552717
aF0.039374582434970044
aF-0.1964598791449795
aF-0.7040787014759339
aF-0.15581785664105866
aF0.6643775233751436
aa(lp11
F0.6355926284083614
aF-0.07784161401199692
aF0.10227392797852754
aF-0.1587665337260746
aF-0.6889779237370963
aF-0.12340363535337409
aF0.6963290537907337
aa(lp12
F0.6059136118417905
aF-0.1396653223736785
aF0.10615350444007816
aF-0.17614905568186276
aF-0.6924158347315311
aF-0.18251036140707683
aF0.6754419219847724
aa(lp13
F0.5724321250562314
aF-0.20175162888603432
aF0.10953786757625192
aF-0.1687581293904994
aF-0.705275727667063
aF-0.16619626218639857
aF0.6681958127402357
aa(lp14
F0.6358148492412803
aF-0.07633172612131364
aF0.1735941217637358
aF-0.13755257435027618
aF-0.6933566931607291
aF-0.13764490194508264
aF0.693822503459897
aa(lp15
F0.6035432374035871
aF-0.13843712626415994
aF0.17682638488433994
aF-0.17790822277017243
aF-0.6960638900012828
aF-0.19354949447971415
aF0.6681184913573999
aa(lp16
F0.5697654566647093
aF-0.19978969950734818
aF0.18015496819107635
aF-0.16632606875988143
aF-0.7013998512453503
aF-0.16591783652850162
aF0.6729377081465899
aasS'id'
p17
(lp18
I6
aI7
aI8
aI3
aI4
aI5
aI0
aI1
aI2
asS'conf'
p19
(lp20
I1
aI1
aI1
aI1
aI1
aI1
aI1
aI1
aI1
as.(dp0
S'viz'
p1
(lp2
I01
aI01
aI01
aI01
aI01
aI01
aI01
aI01
aI01
asS'frame'
p3
(lp4
S'torso_lift_link'
p5
ag5
ag5
ag5
ag5
ag5
ag5
ag5
ag5
asS'pose'
p6
(lp7
(lp8
F0.6335432441146286
aF-0.07930407173655638
aF0.036623647425001925
aF-0.1662239745306794
aF-0.687411508185623
aF-0.13120374201511686
aF0.6947089943180681
aa(lp9
F0.6041852169566684
aF-0.14104815583538113
aF0.04081233650629916
aF-0.15151534981581122
aF-0.7079149934942643
aF-0.1693370790072491
aF0.6687483939640533
aa(lp10
F0.5729382980017015
aF-0.2036204455075439
aF0.045237839612880006
aF-0.17441441689945217
aF-0.7087684277586234
aF-0.1756928173078536
aF0.6605747201767734
aa(lp11
F0.6339259581801332
aF-0.0776973346225272
aF0.10666676721087222
aF-0.16808276007519565
aF-0.688605335451664
aF-0.12417297355263072
aF0.6943716226863704
aa(lp12
F0.6034568165555413
aF-0.13953872523557978
aF0.1110988196767408
aF-0.2057323148035351
aF-0.6860680100583838
aF-0.15203317927774135
aF0.6810806212327661
aa(lp13
F0.5694321232077516
aF-0.20094260933958438
aF0.11575187135625781
aF-0.19014468261935866
aF-0.70089072047176
aF-0.15194215799640223
aF0.6704556497275244
aa(lp14
F0.6348765757348802
aF-0.07561022164645004
aF0.17799381617410698
aF-0.16912982323212417
aF-0.6865729129416083
aF-0.11919895135462741
aF0.6969966629075798
aa(lp15
F0.6018395372378973
aF-0.13738896708797513
aF0.18209782481929415
aF-0.18218924880577622
aF-0.6862478548297495
aF-0.19151225011046769
aF0.677638559571974
aa(lp16
F0.5672469448160242
aF-0.1982500631500172
aF0.18650629159844967
aF-0.17283239397746417
aF-0.6973494290287731
aF-0.1737323645184119
aF0.6735353019286404
aasS'id'
p17
(lp18
I6
aI7
aI8
aI3
aI4
aI5
aI0
aI1
aI2
asS'conf'
p19
(lp20
I1
aI1
aI1
aI1
aI1
aI1
aI1
aI1
aI1
as.(dp0
S'viz'
p1
(lp2
I01
aI01
aI01
aI01
aI01
aI01
aI01
aI01
aI01
asS'frame'
p3
(lp4
S'torso_lift_link'
p5
ag5
ag5
ag5
ag5
ag5
ag5
ag5
ag5
asS'pose'
p6
(lp7
(lp8
F0.5738518797321084
aF-0.197661104136043
aF0.024317038701818578
aF-0.17808845510346336
aF-0.7065801944292756
aF-0.14447119868127686
aF0.6694452955624859
aa(lp9
F0.6305679325704221
aF-0.07097150189457102
aF0.08812318043208431
aF-0.14259359148859443
aF-0.6876696439773616
aF-0.13449641933412237
aF0.6990624017959574
aa(lp10
F0.6016913887895183
aF-0.13318489898502078
aF0.09178386269896133
aF-0.16379552731121538
aF-0.6900571230234488
aF-0.15414309129794335
aF0.6879186722299053
aa(lp11
F0.5696790358166636
aF-0.19556593630048946
aF0.0955674376016783
aF-0.16065616921598413
aF-0.7029459380951603
aF-0.16003365833420308
aF0.6741259760671826
aa(lp12
F0.6320370663831263
aF-0.07023253643218368
aF0.15970932223178735
aF-0.13427990386339456
aF-0.6927178216000889
aF-0.13484805535670538
aF0.6956485671821512
aa(lp13
F0.6001481744978163
aF-0.1324946574222893
aF0.16337713010517185
aF-0.18153030944991733
aF-0.6939642343193634
aF-0.17632616837454462
aF0.6740693366285909
aa(lp14
F0.566876568911988
aF-0.19390325645605705
aF0.16708093955193049
aF-0.15647814165209395
aF-0.6975883354129789
aF-0.15861788875965543
aF0.6809739134844197
aa(lp15
F0.6298750296235085
aF-0.07139243150595562
aF0.01820507259981255
aF-0.15051401257368766
aF-0.6888738876859868
aF-0.11544079219143168
aF0.6996225570845876
aa(lp16
F0.6020617595425358
aF-0.13387959590296672
aF0.02103495737322171
aF-0.13749790519974323
aF-0.7084569057117655
aF-0.138725284074266
aF0.6781876100117927
aasS'id'
p17
(lp18
I8
aI3
aI4
aI5
aI0
aI1
aI2
aI6
aI7
asS'conf'
p19
(lp20
I1
aI1
aI1
aI1
aI1
aI1
aI1
aI1
aI1
as.(dp0
S'viz'
p1
(lp2
I01
aI01
aI01
aI01
aI01
aI01
aI01
aI01
aI01
asS'frame'
p3
(lp4
S'torso_lift_link'
p5
ag5
ag5
ag5
ag5
ag5
ag5
ag5
ag5
asS'pose'
p6
(lp7
(lp8
F0.5992592896944211
aF-0.11187297521549965
aF-0.021477508761080562
aF-0.1395055184685669
aF-0.6831159352699244
aF-0.17490590669683895
aF0.6951969167794615
aa(lp9
F0.6300864484575059
aF-0.05152361135308926
aF-0.021127420586798156
aF-0.16180045438381233
aF-0.6593427548954094
aF-0.1562595469047172
aF0.7174055328259298
aa(lp10
F0.568777804757342
aF-0.17326772279209546
aF-0.021810642082853413
aF-0.1474545017129021
aF-0.67491400935071
aF-0.17719173613394043
aF0.7009645772452341
aa(lp11
F0.6324568170088308
aF-0.05584304740215511
aF0.04780568235358352
aF-0.14416846105964226
aF-0.6656410571287741
aF-0.17696889757566925
aF0.7105064723076312
aa(lp12
F0.6013580523891213
aF-0.11603589072639545
aF0.047981778780619426
aF-0.14627683153230064
aF-0.6679362022003162
aF-0.17773759513832957
aF0.707724286443197
aa(lp13
F0.5694197769518252
aF-0.1771118851723493
aF0.04872314280105974
aF-0.13030023230833765
aF-0.6866588423311855
aF-0.18619949517866455
aF0.6905441562304324
aa(lp14
F0.6357901574652872
aF-0.05928020192609142
aF0.11792829697146842
aF-0.13714291539738618
aF-0.6734309838937508
aF-0.1668597043383383
aF0.7069938965481404
aa(lp15
F0.6034444798657923
aF-0.12056060578720053
aF0.11883964315976639
aF-0.17183131515630481
aF-0.6670634143888722
aF-0.18874192753381377
aF0.6999120552657564
aa(lp16
F0.569456813512025
aF-0.18097851666403392
aF0.11981146065173338
aF-0.13992468847539677
aF-0.6852017999527091
aF-0.17293845088706536
aF0.6935501907586882
aasS'id'
p17
(lp18
I7
aI6
aI8
aI3
aI4
aI5
aI0
aI1
aI2
asS'conf'
p19
(lp20
I1
aI1
aI1
aI1
aI1
aI1
aI1
aI1
aI1
as.(dp0
S'viz'
p1
(lp2
I01
aI01
aI01
aI01
aI01
aI01
aI01
aI01
aI01
asS'frame'
p3
(lp4
S'torso_lift_link'
p5
ag5
ag5
ag5
ag5
ag5
ag5
ag5
ag5
asS'pose'
p6
(lp7
(lp8
F0.5742963243413854
aF-0.1488445942232637
aF-0.07753693648142566
aF-0.1298400908813758
aF-0.6576701403196978
aF-0.18411381544174188
aF0.7188279629336001
aa(lp9
F0.6028148465686374
aF-0.08715730001345079
aF-0.07225914630624969
aF-0.12374355696446157
aF-0.6652386291214302
aF-0.20195099051973026
aF0.7080684259748653
aa(lp10
F0.6334321292830102
aF-0.027534297626195216
aF-0.06775882904544275
aF-0.1391054266728794
aF-0.6492593995922785
aF-0.19532464779940115
aF0.7217757229730507
aa(lp11
F0.577086447197714
aF-0.15740485298044873
aF-0.008208912899315137
aF-0.08743333566932467
aF-0.673067714431383
aF-0.19342064305325207
aF0.7084657496624068
aa(lp12
F0.6057000279426574
aF-0.09629062381573007
aF-0.00393928595949533
aF-0.1349303531626311
aF-0.6531513131253919
aF-0.20556292791990133
aF0.7161920445124906
aa(lp13
F0.6368395355012682
aF-0.036811288297866084
aF0.00010883007241703085
aF-0.1511930229135944
aF-0.6492999353035985
aF-0.1933485867966805
aF0.7198378899590647
aa(lp14
F0.6408148444729087
aF-0.04494031892132207
aF0.06865300882009827
aF-0.1291849900366072
aF-0.6586587373743215
aF-0.21311864077916545
aF0.7099720776073855
aa(lp15
F0.579370399316152
aF-0.1666320488960653
aF0.0616401335983366
aF-0.07906674096181862
aF-0.6783085379782037
aF-0.17971949841998508
aF0.7080585284192388
aa(lp16
F0.6089136092751114
aF-0.10523459671272159
aF0.06504778830725484
aF-0.14811801728581458
aF-0.6506382892134402
aF-0.19566052911905696
aF0.7186430455445718
aasS'id'
p17
(lp18
I8
aI7
aI6
aI5
aI4
aI3
aI0
aI2
aI1
asS'conf'
p19
(lp20
I1
aI1
aI1
aI1
aI1
aI1
aI1
aI1
aI1
as.(dp0
S'viz'
p1
(lp2
I01
aI01
aI01
aI01
aI01
aI01
aI01
aI01
aI01
asS'frame'
p3
(lp4
S'torso_lift_link'
p5
ag5
ag5
ag5
ag5
ag5
ag5
ag5
ag5
asS'pose'
p6
(lp7
(lp8
F0.5890987956965411
aF-0.13984048920281128
aF-0.10805097691438803
aF-0.11580675976475678
aF-0.683519803569825
aF-0.17745518892935272
aF0.6984977655244887
aa(lp9
F0.6168024974104799
aF-0.07816812832506337
aF-0.10020180589254978
aF-0.12454587719234408
aF-0.6836146985697047
aF-0.1845719292068822
aF0.6950485388249449
aa(lp10
F0.6457654635111489
aF-0.017653438661184108
aF-0.09326630830764757
aF-0.10030289025869685
aF-0.6746825746067107
aF-0.18980075478664454
aF0.7061999909446559
aa(lp11
F0.5882716340783202
aF-0.14881903183313053
aF-0.03872597554445621
aF-0.11356318339195638
aF-0.6809353139556913
aF-0.18332076625120708
aF0.6998742731712742
aa(lp12
F0.6171975599394904
aF-0.08759959255471628
aF-0.03214583403350381
aF-0.1124787241161944
aF-0.6678404048669286
aF-0.22175102385992287
aF0.7015441637312976
aa(lp13
F0.6465185498013909
aF-0.027511346389332433
aF-0.025456227267298844
aF-0.1117174979052981
aF-0.6753388007637093
aF-0.2100126484321156
aF0.6980912492957804
aa(lp14
F0.5879012625894429
aF-0.15826161906675043
aF0.030249666945755982
aF-0.08772223601633301
aF-0.6840165902850828
aF-0.18969684437678497
aF0.6988856993504402
aa(lp15
F0.617098793571378
aF-0.09719782945366538
aF0.036021060632242974
aF-0.12642091805078362
aF-0.6702263636816105
aF-0.23213994416884504
aF0.6934878652338541
aa(lp16
F0.64803707158124
aF-0.036917755055172155
aF0.04225362986786144
aF-0.13122965683164378
aF-0.6657105383198934
aF-0.1854863356487552
aF0.710776389327392
aasS'id'
p17
(lp18
I8
aI7
aI6
aI5
aI4
aI3
aI2
aI1
aI0
asS'conf'
p19
(lp20
I1
aI1
aI1
aI1
aI1
aI1
aI1
aI1
aI1
as.(dp0
S'viz'
p1
(lp2
I01
aI01
aI01
aI01
aI01
aI01
aI01
aI01
aI01
asS'frame'
p3
(lp4
S'torso_lift_link'
p5
ag5
ag5
ag5
ag5
ag5
ag5
ag5
ag5
asS'pose'
p6
(lp7
(lp8
F0.6043457065099551
aF-0.1444322479911791
aF-0.11811231803378927
aF-0.08008613470790768
aF-0.7037861004000368
aF-0.1622588864770668
aF0.6869813604971232
aa(lp9
F0.6280000253959939
aF-0.08083297272707195
aF-0.10911114155142382
aF-0.07829766170914743
aF-0.7068778154864618
aF-0.19168811024872442
aF0.6763496865773212
aa(lp10
F0.6538271911350297
aF-0.01843877677003735
aF-0.10096503904572225
aF-0.0888406664949913
aF-0.6938531756745064
aF-0.15328794975857502
aF0.6979813113844386
aa(lp11
F0.6009012644673571
aF-0.15278172550010077
aF-0.048856334921754306
aF-0.08428598818387817
aF-0.7037136527377411
aF-0.14944650016502362
aF0.6894553725476353
aa(lp12
F0.6266049654395492
aF-0.08985066898627031
aF-0.04095178396429531
aF-0.11618873850851225
aF-0.6768626192454255
aF-0.1808207987318416
aF0.7040319669290606
aa(lp13
F0.6529629900131697
aF-0.028013004293739877
aF-0.03315976703608463
aF-0.09289815085717777
aF-0.683542528095268
aF-0.18223186207374115
aF0.7006647517162424
aa(lp14
F0.5983580571633799
aF-0.16168002114619723
aF0.02009950757937887
aF-0.05370019550381042
aF-0.7024660707724375
aF-0.15690390558425296
aF0.6921263416666015
aa(lp15
F0.624387526512146
aF-0.09869608860462889
aF0.026883013689075735
aF-0.12629193648873904
aF-0.6820845739029476
aF-0.21191519969139586
aF0.6884060785330954
aa(lp16
F0.6526049655160786
aF-0.03740274041781854
aF0.03455086628458029
aF-0.09678460170703021
aF-0.6811417597426738
aF-0.175105643472842
aF0.7042845004904106
aasS'id'
p17
(lp18
I8
aI7
aI6
aI5
aI4
aI3
aI2
aI1
aI0
asS'conf'
p19
(lp20
I1
aI1
aI1
aI1
aI1
aI1
aI1
aI1
aI1
as.(dp0
S'viz'
p1
(lp2
I01
aI01
aI01
aI01
aI01
aI01
aI01
aI01
aI01
asS'frame'
p3
(lp4
S'torso_lift_link'
p5
ag5
ag5
ag5
ag5
ag5
ag5
ag5
ag5
asS'pose'
p6
(lp7
(lp8
F0.5971111412401553
aF-0.15508687470430194
aF-0.08508724857259665
aF-0.09930740936960539
aF-0.694844037402549
aF-0.17072217731079659
aF0.6915083081964263
aa(lp9
F0.6232222509972843
aF-0.09191070411492262
aF-0.07842936398990347
aF-0.11484406511460366
aF-0.7002073974290886
aF-0.18926696340794277
aF0.6787477129654815
aa(lp10
F0.6509382989671495
aF-0.030311134969815464
aF-0.07269757130631681
aF-0.10850481902862001
aF-0.6813946649638896
aF-0.18542193241844426
aF0.6996761549349277
aa(lp11
F0.5949383024816159
aF-0.16167438905916082
aF-0.01650617382974914
aF-0.0905696779898591
aF-0.7019697959929463
aF-0.15877903037422408
aF0.6883492997424026
aa(lp12
F0.6222716304990981
aF-0.09912075771041844
aF-0.010667537421672063
aF-0.12394707852655248
aF-0.6817879676515527
aF-0.19855844105695594
aF0.6930922264571499
aa(lp13
F0.6503333633328662
aF-0.037946067948503574
aF-0.0055619639087248485
aF-0.11316460792878294
aF-0.6786941021561439
aF-0.19056230984276148
aF0.7001814716758663
aa(lp14
F0.5927531130519914
aF-0.16893918703735597
aF0.05221868676627872
aF-0.0865885105766123
aF-0.6968528799091103
aF-0.1577676034899911
aF0.6942678711329857
aa(lp15
F0.620938300350566
aF-0.10653390350901036
aF0.05700797560038404
aF-0.11992652608049285
aF-0.6857129423690468
aF-0.21114237419544346
aF0.6861736564667581
aa(lp16
F0.6503950953483582
aF-0.045194686725045646
aF0.06217289081326252
aF-0.1332267144846818
aF-0.6772108273888165
aF-0.16296031259562946
aF0.7050390587291646
aasS'id'
p17
(lp18
I8
aI7
aI6
aI5
aI4
aI3
aI2
aI1
aI0
asS'conf'
p19
(lp20
I1
aI1
aI1
aI1
aI1
aI1
aI1
aI1
aI1
as.(dp0
S'viz'
p1
(lp2
I01
aI01
aI01
aI01
aI01
aI01
aI01
aI01
aI01
asS'frame'
p3
(lp4
S'torso_lift_link'
p5
ag5
ag5
ag5
ag5
ag5
ag5
ag5
ag5
asS'pose'
p6
(lp7
(lp8
F0.5899753342440099
aF-0.17466877007190076
aF-0.022567573543867816
aF-0.11402500607410535
aF-0.6987739543232081
aF-0.1552878122112541
aF0.6889114269105642
aa(lp9
F0.6166296549785284
aF-0.1112958674077633
aF-0.020302493879743887
aF-0.11483638903023069
aF-0.7024831204923158
aF-0.18781107196094432
aF0.6767991359530221
aa(lp10
F0.645345707734426
aF-0.049959307968800305
aF-0.019043704898694364
aF-0.13564297505678058
aF-0.681426626852019
aF-0.1635889702821077
aF0.7003551844149257
aa(lp11
F0.6457037410618347
aF-0.0536456455396096
aF0.04907160804227561
aF-0.12826658753943546
aF-0.6804366668430692
aF-0.17137707477503183
aF0.7008448638450847
aa(lp12
F0.6166296593936873
aF-0.11523917080075638
aF0.04774202571974874
aF-0.1466683975103495
aF-0.6799635367241941
aF-0.16580196637327677
aF0.6990333882183501
aa(lp13
F0.5875802746525517
aF-0.1777940373361845
aF0.04642032050056235
aF-0.12081369211872003
aF-0.6992934536050754
aF-0.14734443520159868
aF0.6889719406164893
aa(lp14
F0.6472469435797799
aF-0.0573260339022969
aF0.117805216231464
aF-0.12623377363697413
aF-0.6768025562002348
aF-0.14716156021013005
aF0.7101737882453263
aa(lp15
F0.6165802751058413
aF-0.11936095864684479
aF0.11663289358954385
aF-0.15534025136627488
aF-0.6871353406772752
aF-0.18687229994846513
aF0.6846847255560462
aa(lp16
F0.5854321284058653
aF-0.1811578699836023
aF0.11587673903983328
aF-0.10159515162470092
aF-0.7014136384964169
aF-0.1652600071906306
aF0.6858472591772343
aasS'id'
p17
(lp18
I8
aI7
aI6
aI3
aI4
aI5
aI0
aI1
aI2
asS'conf'
p19
(lp20
I1
aI1
aI1
aI1
aI1
aI1
aI1
aI1
aI1
as.(dp0
S'viz'
p1
(lp2
I01
aI01
aI01
aI01
aI01
aI01
aI01
aI01
aI01
asS'frame'
p3
(lp4
S'torso_lift_link'
p5
ag5
ag5
ag5
ag5
ag5
ag5
ag5
ag5
asS'pose'
p6
(lp7
(lp8
F0.6461481805200929
aF-0.06610829219406018
aF0.026582976486993936
aF-0.14074416833075828
aF-0.7045617738069797
aF-0.1471335480020993
aF0.6798054905803271
aa(lp9
F0.6175185456688022
aF-0.12844161783103575
aF0.027935604403876366
aF-0.14807137096597098
aF-0.7106136304580841
aF-0.14030923689358005
aF0.6733620536901234
aa(lp10
F0.5886173101119053
aF-0.19187796421257056
aF0.029380460470960965
aF-0.15401164655079247
aF-0.7224443729195066
aF-0.1512119567423679
aF0.6568785922084833
aa(lp11
F0.6443950945948377
aF-0.06596957337525142
aF0.0955719285541112
aF-0.15019004073200273
aF-0.6872965556489923
aF-0.13138996087656224
aF0.6984290045801409
aa(lp12
F0.6147901482052274
aF-0.12821947849459103
aF0.09731770168851937
aF-0.1685659948714505
aF-0.6980944900034041
aF-0.16333711783861993
aF0.6764396309620379
aa(lp13
F0.5827901510544765
aF-0.19019794199201778
aF0.09918535647936821
aF-0.15686516922585855
aF-0.7138706985987655
aF-0.1521155731935965
aF0.6653140587405595
aa(lp14
F0.6436666971371497
aF-0.06571900326712617
aF0.16626024632542236
aF-0.13278682450010532
aF-0.6967529612569835
aF-0.1426441213844452
aF0.6903300839839318
aa(lp15
F0.6113703986744822
aF-0.12762875415292774
aF0.16745542633680663
aF-0.17980849880954342
aF-0.6964310824193993
aF-0.1842949406421371
aF0.6698417918058812
aa(lp16
F0.5780741020485207
aF-0.18924770064559973
aF0.16877411949781737
aF-0.15506174017088717
aF-0.7047256239908823
aF-0.14877499972724426
aF0.6761535706346571
aasS'id'
p17
(lp18
I6
aI7
aI8
aI3
aI4
aI5
aI0
aI1
aI2
asS'conf'
p19
(lp20
I1
aI1
aI1
aI1
aI1
aI1
aI1
aI1
aI1
as.(dp0
S'viz'
p1
(lp2
I01
aI01
aI01
aI01
aI01
aI01
aI01
aI01
aI01
asS'frame'
p3
(lp4
S'torso_lift_link'
p5
ag5
ag5
ag5
ag5
ag5
ag5
ag5
ag5
asS'pose'
p6
(lp7
(lp8
F0.631185218139931
aF-0.075621050260501
aF0.0555616733560593
aF-0.1531840963839068
aF-0.7049143847664737
aF-0.12223682930437077
aF0.6816806439425752
aa(lp9
F0.6030741039617562
aF-0.13824552198251072
aF0.0597949832401895
aF-0.16497086125165616
aF-0.7193981119944616
aF-0.13470946432259595
aF0.6611386629282924
aa(lp10
F0.574506198918378
aF-0.2025761316587894
aF0.0635404271292099
aF-0.17284578700837852
aF-0.7280535167146036
aF-0.13969326588501246
aF0.6484968790821835
aa(lp11
F0.6300000261377405
aF-0.0731502677739401
aF0.1261927880070829
aF-0.15666719298694318
aF-0.6977335594189497
aF-0.11984981992508385
aF0.6886648614283146
aa(lp12
F0.5998642282721437
aF-0.13569916105932645
aF0.13018983768092277
aF-0.17819309594457144
aF-0.7079633468302449
aF-0.14541846807402042
aF0.6677488968509139
aa(lp13
F0.5678642244986546
aF-0.1983421503025807
aF0.13424469990494825
aF-0.16427168683418325
aF-0.7244710762793088
aF-0.1330445152975445
aF0.6560911746766551
aa(lp14
F0.6281481760519522
aF-0.07025829798737412
aF0.19777701463964267
aF-0.15959030393939763
aF-0.7053849444141206
aF-0.12123036566823986
aF0.6799016204734063
aa(lp15
F0.5963333661173597
aF-0.1327318233840258
aF0.2017300430639292
aF-0.1959919212299839
aF-0.7005066375149528
aF-0.1557641498529258
aF0.6682927107418348
aa(lp16
F0.5638205386125125
aF-0.19401083042224238
aF0.2044831380630152
aF-0.17122933326090656
aF-0.7161720419155987
aF-0.14520767379922067
aF0.6608274005209578
aasS'id'
p17
(lp18
I6
aI7
aI8
aI3
aI4
aI5
aI0
aI1
aI2
asS'conf'
p19
(lp20
I1
aI1
aI1
aI1
aI1
aI1
aI1
aI1
aI1
as.